ccopy_reg
_reconstructor
p0
(cdicts
DefaultDict
p1
c__builtin__
dict
p2
(dp3
(S'spamham/easy_ham_2'
p4
S'DEFAULT'
p5
tp6
cnumpy.core.multiarray
scalar
p7
(cnumpy
dtype
p8
(S'i8'
p9
I0
I1
tp10
Rp11
(I3
S'<'
p12
NNNI-1
I-1
I0
tp13
bS'\x00\x00\x00\x00\x00\x00\x00\x00'
p14
tp15
Rp16
s(S'spamham/spam_2'
p17
g5
tp18
g7
(g11
S'\x00\x00\x00\x00\x00\x00\x00\x00'
p19
tp20
Rp21
stp22
Rp23
(dp24
S'default'
p25
I0
sb.