(dp0
Vearn
p1
(dp2
Vfour
p3
F0.5227407020149025
sVprefix
p4
F0.05258075755351919
sVcyprus
p5
F0.0788712828151183
sVauthoris
p6
F0.04600814149700646
sVyellow
p7
F0.0657260079771921
ssVwheat
p8
(dp9
Vlord
p10
F0.08091402492070819
sg4
F27.9699903170686
sg5
F0.19419429098163052
sg6
F0.11327974008406905
sg7
F4.510514152774688
ssVmoney-fx
p11
(dp12
g3
F0.8622352770948217
sg4
F0.10697477361044212
sg5
F0.16046245843690277
sg6
F0.093602883447807
sg7
F0.13371859118845383
ssVcorn
p13
(dp14
g3
F1.1700656609028648
sVre-emerg
p15
F31.60915167584944
sg5
F0.1840418970107504
sg4
F29.670579491693008
sg7
F4.844540872818447
ssVtrade
p16
(dp17
g3
F2.469299524566572
sg5
F0.2769829833256859
sVsuzann
p18
F9.383002074361176
sg7
F0.2308189384250881
sg6
F4.593607334564384
ssVacq
p19
(dp20
g3
F3.5743085840043913
sg4
F0.12468611540502672
sg5
F0.18702952047084279
sg6
F0.10910030032236767
sg7
F0.15585778899085845
ssVgrain
p21
(dp22
g10
F0.07715779896687303
sg4
F29.470758171313285
sg5
F0.18517931939188906
sg6
F0.10802101886528832
sg7
F4.805259024425296
ssVinterest
p23
(dp24
g10
F0.05747374605518247
sg4
F0.09195812178103495
sg5
F0.13793743885787108
sg6
F0.0804633191979875
sg7
F0.114947758970494
ssVcrude
p25
(dp26
g10
F0.08071745191216405
sg4
F0.12914810295585924
sg5
F0.19372251422775177
sg6
F0.11300453761654572
sg7
F0.16143527860883605
ssVship
p27
(dp28
g3
F0.1534833356437157
sg4
F0.11540984470654266
sg5
F0.17311508858033528
sg6
F0.10098356722992433
sg7
F0.14426243984993778
ss.