(dp0
Vearn
p1
(dp2
S'operations'
p3
F195963.7669071094
sS'houston'
p4
F26631.301840227734
sS'stores'
p5
F38038.883892040845
sS'incoming'
p6
F14566.077233222804
sS'schillings'
p7
F13447.526269122867
sS'rev'
p8
F83001.6723603595
sS'realty'
p9
F12343.698917658556
sS'writeoff'
p10
F17949.5404124637
sS'expects'
p11
F138802.12592608875
sS'ending'
p12
F15962.102676964148
sS'four'
p13
F39984.63175581194
sS'ended'
p14
F111779.79200091671
sS'accounting'
p15
F37210.52911537836
sS'plc'
p16
F22090.194559272215
sS'shares'
p17
F45460.09023777178
sS'restated'
p18
F84898.15374781581
sS'alusuisse'
p19
F17615.2683256351
sS'settlement'
p20
F12633.806539808313
sS'nov'
p21
F21006.904485439074
sS'industries'
p22
F41558.77702688977
sS'excludes'
p23
F289512.5754048257
sS'votes'
p24
F15542.47428278924
sS'retirement'
p25
F15485.01820206647
sS'group'
p26
F49146.91032997024
sS'earned'
p27
F65220.34524597652
sS'disposal'
p28
F25065.27106644128
sS'stockholders'
p29
F10896.973956537413
sS'royal'
p30
F15636.21254913234
sS'auditors'
p31
F19597.216044528468
sS'jan'
p32
F277299.5608194045
sS'woolworths'
p33
F10595.949638900962
sS'charge'
p34
F130247.99515880927
sS'neb'
p35
F9840.795489398035
sS'systems'
p36
F24935.40615784251
sS'marks'
p37
F49173.01789600111
sS'quarterly'
p38
F247916.11013263627
sS'include'
p39
F36975.89901251875
sS'mart'
p40
F9575.402560517497
sS'texas'
p41
F12095.137563067598
sS'split'
p42
F380054.09748520935
sS'carryforward'
p43
F36253.23663710705
sS'march'
p44
F419006.3922848123
sS'gains'
p45
F52846.785593109526
sS'provisions'
p46
F24256.483241136186
sS'md'
p47
F11973.411179876852
sS'capital'
p48
F16495.183711713817
sS'performance'
p49
F12458.632219674539
sS'bat'
p50
F17647.80502398581
sS'preferred'
p51
F24897.371940482288
sS'results'
p52
F287934.7767357803
sS'property'
p53
F9879.068391365035
sS'qualified'
p54
F15992.975216208644
sS'five'
p55
F46500.66306339915
sS'half'
p56
F27859.150703540996
sS'respectively'
p57
F38648.416536813245
sS'trade'
p58
F15461.086884829794
sS'provision'
p59
F37070.225218587904
sS'loss'
p60
F2931426.1294756397
sS'shr'
p61
F2336007.887773884
sS'name'
p62
F55820.61726768633
sS'laidlaw'
p63
F14123.086773825917
sS'chairman'
p64
F11624.110915635081
sS'taxes'
p65
F16428.75258697078
sS'item'
p66
F20314.980040201448
sS'cra'
p67
F16473.167551957977
sS'common'
p68
F32677.10492321144
sS'qtly'
p69
F497958.0656116381
sS'ohio'
p70
F12144.717728425523
sS'div'
p71
F647201.5639967324
sS'quarter'
p72
F399533.6539001303
sS'ups'
p73
F12306.88499614118
sS'backlog'
p74
F22409.184523723474
sS'declared'
p75
F128480.04946419674
sS'heinz'
p76
F10175.627671404503
sS'qtr'
p77
F1531859.7738859227
sS'ga'
p78
F10821.410084879833
sS'higher'
p79
F19313.82440194202
sS'consolidated'
p80
F14802.141260489927
sS'related'
p81
F18894.554011877142
sS'second'
p82
F25017.752618837178
sS'declares'
p83
F40960.892778960966
sS'year'
p84
F574569.3080576687
sS'sprint'
p85
F15298.261499280317
sS'ark'
p86
F12055.023267828885
sS'investment'
p87
F18336.9235421229
sS'hongkong'
p88
F19047.68716681194
sS'said'
p89
F28639.36450365226
sS'primary'
p90
F10671.476831372393
sS'business'
p91
F27735.353050078327
sS'communications'
p92
F15720.032852992954
sS'profit'
p93
F1880575.8110966573
sS'diluted'
p94
F72078.23583368509
sS'profitability'
p95
F11519.136722137187
sS'per'
p96
F117873.58374234952
sS'vms'
p97
F10695.023457685253
sS'increase'
p98
F21537.73679877053
sS'dlr'
p99
F43179.27184974449
sS'varity'
p100
F14123.086773825917
sS'debit'
p101
F41084.294031397076
sS'new'
p102
F25664.160465668014
sS'net'
p103
F2975297.459195578
sS'calif'
p104
F121797.55429641841
sS'reporting'
p105
F13967.71004951993
sS'quarters'
p106
F10280.13399432674
sS'mthly'
p107
F24689.99481630983
sS'ends'
p108
F16695.20907010789
sS'full'
p109
F69124.79058360257
sS'wheat'
p110
F11248.931730949456
sS'parent'
p111
F47116.9664159193
sS'dividends'
p112
F85023.92621771977
sS'driel'
p113
F12947.64328342573
sS'kan'
p114
F10695.023457685253
sS'basf'
p115
F11950.36220543951
sS'reported'
p116
F81296.90532160879
sS'restructuring'
p117
F37501.56290225612
sS'corp'
p118
F167798.66108164983
sS'york'
p119
F32203.959877548146
sS'dividend'
p120
F842476.2107452507
sS'strong'
p121
F9619.513235340506
sS'loans'
p122
F11678.462781668659
sS'properties'
p123
F37153.14369634582
sS'utilicorp'
p124
F10132.56223326612
sS'payout'
p125
F254810.3842818264
sS'dlrs'
p126
F809040.4258543273
sS'businesses'
p127
F10428.691413774855
sS'dec'
p128
F121610.4846352749
sS'mths'
p129
F441064.1289245448
sS'reverse'
p130
F16216.393958325501
sS'extraordinary'
p131
F258165.27262448327
sS'items'
p132
F18800.70737260658
sS'ill'
p133
F14311.215614459321
sS'losses'
p134
F113228.423844711
sS'pillsbury'
p135
F12143.52272117603
sS'matheson'
p136
F18897.583469474703
sS'minorities'
p137
F27035.246938156844
sS'angeles'
p138
F26300.982197675097
sS'april'
p139
F183979.57129222347
sS'att'
p140
F22949.789335110112
sS'navistar'
p141
F10595.949638900962
sS'franklin'
p142
F19084.588743783213
sS'ltd'
p143
F51314.59734364239
sS'cornelissen'
p144
F14123.086773825917
sS'operating'
p145
F157397.49761355313
sS'holders'
p146
F51201.49125074136
sS'discontinued'
p147
F229033.08994055717
sS'montreal'
p148
F19051.551965847895
sS'first'
p149
F80551.40025319967
sS'oper'
p150
F992491.9112788601
sS'adjusted'
p151
F13128.61984331312
sS'porsche'
p152
F12947.64328342573
sS'previously'
p153
F13243.95237347169
sS'annual'
p154
F20174.60525946549
sS'period'
p155
F17959.135019510322
sS'increased'
p156
F18994.96836428477
sS'one'
p157
F43383.95126316267
sS'wash'
p158
F14662.440874435908
sS'unilever'
p159
F25818.507621851793
sS'shrs'
p160
F717429.9967048342
sS'raises'
p161
F14965.997685142682
sS'alberta'
p162
F18065.415554579962
sS'financial'
p163
F22475.731547307492
sS'trust'
p164
F21994.881306478317
sS'bicc'
p165
F10595.949638900962
sS'sheet'
p166
F16057.453737813496
sS'endotronics'
p167
F18822.174007448604
sS'writedown'
p168
F74829.95629877082
sS'city'
p169
F13310.072532264734
sS'shareholders'
p170
F55735.84247715447
sS'feb'
p171
F99413.6092439525
sS'estate'
p172
F23173.214319487655
sS'hilton'
p173
F11574.020208125463
sS'initial'
p174
F24662.22684336116
sS'ky'
p175
F11304.51990011671
sS'three'
p176
F36480.482589416286
sS'foods'
p177
F12563.808359781951
sS'recapitalization'
p178
F12732.755528171392
sS'continental'
p179
F10524.813323530894
sS'los'
p180
F25370.541235431472
sS'pa'
p181
F32020.26267595689
sS'bayer'
p182
F18822.174007448604
sS'authorized'
p183
F15091.953706778811
sS'calgary'
p184
F22670.65775371697
sS'francs'
p185
F48527.89905672408
sS'carryforwards'
p186
F33931.624879790324
sS'valley'
p187
F9802.916779806284
sS'pretax'
p188
F128437.66535013591
sS'final'
p189
F17338.977956111932
sS'store'
p190
F10355.068982531127
sS'board'
p191
F18164.045433459356
sS'fiscal'
p192
F79039.43712787984
sS'asset'
p193
F11347.385029591916
sS'lifo'
p194
F10595.949638900962
sS'tax'
p195
F115410.56621263736
sS'company'
p196
F238083.26170401304
sS'park'
p197
F12851.615080012753
sS'lower'
p198
F18455.916318224354
sS'acquisitions'
p199
F19239.946984153677
sS'payable'
p200
F225085.25819806074
sS'audit'
p201
F10132.56223326612
sS'hartford'
p202
F22949.789335110112
sS'gain'
p203
F292484.7424553445
sS'mich'
p204
F17584.892707904295
sS'deferred'
p205
F13416.064668652454
sS'improved'
p206
F26314.67939790451
sS'technologies'
p207
F10058.750418238358
sS'mateo'
p208
F17382.195494186806
sS'fort'
p209
F13820.552302378783
sS'toronto'
p210
F46262.0936112266
sS'also'
p211
F13398.69470817094
sS'stg'
p212
F12212.37981189203
sS'splits'
p213
F15230.684771487
sS'bally'
p214
F10962.752515944927
sS'cts'
p215
F3671508.5953364004
sS'mln'
p216
F1497853.46870653
sS'cash'
p217
F16598.19315565627
sS'record'
p218
F437908.5014358244
sS'bigelow'
p219
F10595.949638900962
sS'nine'
p220
F259883.37500183017
sS'resources'
p221
F11492.528735802733
sS'writeoffs'
p222
F10695.016534034483
sS'depreciation'
p223
F13881.321637703322
sS'fla'
p224
F35543.32727655414
sS'making'
p225
F11825.390307214358
sS'distribution'
p226
F62146.944364845454
sS'revenues'
p227
F93264.15049982328
sS'subsidiary'
p228
F9768.576108793863
sS'result'
p229
F13604.331873006166
sS'va'
p230
F28236.615131033883
sS'seven'
p231
F50522.929461524844
sS'months'
p232
F24278.349507760468
sS'sees'
p233
F111195.43567815528
sS'san'
p234
F24392.088807564636
sS'minn'
p235
F29853.166413233914
sS'cinema'
p236
F11841.325097038183
sS'cents'
p237
F17189.388018720176
sS'boston'
p238
F11367.716542037222
sS'cleveland'
p239
F17166.45793028277
sS'share'
p240
F577592.9419008046
sS'sales'
p241
F322881.53266156086
sS'minneapolis'
p242
F25558.136270117437
sS'expenses'
p243
F60693.26676615897
sS'cathay'
p244
F28207.471323106067
sS'blah'
p245
F36466.12071787291
sS'unit'
p246
F12772.824862689811
sS'current'
p247
F12397.3508950967
sS'periods'
p248
F105189.09617923485
sS'qtrly'
p249
F58591.62346495592
sS'ind'
p250
F18905.792189580312
sS'exclude'
p251
F56575.28887734209
sS'avg'
p252
F716401.0755038925
sS'orders'
p253
F17954.883570355865
sS'conn'
p254
F40992.0845286946
sS'inc'
p255
F305575.3539455831
sS'compared'
p256
F17748.40963933536
sS'end'
p257
F14621.909346134911
sS'prior'
p258
F505106.3104860809
sS'pay'
p259
F257929.7339299624
sS'jardine'
p260
F21535.422234547616
sS'six'
p261
F116366.80888433462
sS'liquidating'
p262
F22261.095060065938
sS'crowns'
p263
F28272.974350825265
sS'insurance'
p264
F17974.93795438264
sS'note'
p265
F842995.843863478
sS'swire'
p266
F23516.966895872643
sS'pasadena'
p267
F10595.949638900962
sS'attributable'
p268
F10598.020672328139
sS'earnings'
p269
F521622.8615016698
sS'fourth'
p270
F62460.91462123376
sS'income'
p271
F179041.36189876925
sS'associated'
p272
F13779.951150206904
sS'revs'
p273
F1569227.9806519311
sS'audi'
p274
F12947.64328342573
sS'pan'
p275
F10695.016534034483
sS'stock'
p276
F126345.69662777398
sS'writedowns'
p277
F21328.62975298182
sS'columbia'
p278
F25631.89590445305
sS'nil'
p279
F56032.46636144599
sS'may'
p280
F39659.91833490308
sS'carolina'
p281
F10719.61182922506
sS'earlier'
p282
F14339.608960133684
sS'june'
p283
F15947.539175362816
sS'return'
p284
F12053.409503551316
sS'paid'
p285
F17954.31377366854
sS'includes'
p286
F421301.0646106563
sS'reflect'
p287
F27891.19741118308
sS'regular'
p288
F52824.31554441351
sS'eight'
p289
F58735.44017111954
sS'two'
p290
F24121.364565172727
sS'included'
p291
F11056.382556789857
sS'services'
p292
F10787.98518655479
sS'segment'
p293
F13559.447872428134
sS'class'
p294
F27119.674391940887
sS'yearend'
p295
F9709.0045618759
sS'tenn'
p296
F12732.704996698554
sS'billion'
p297
F88580.38137144565
sS'equatorial'
p298
F14123.086773825917
sS'realized'
p299
F19893.862367832327
sS'assets'
p300
F19171.72943204143
sS'margins'
p301
F12110.081835569119
sS'insured'
p302
F16321.05280343538
sS'charges'
p303
F41077.202091807616
sS'american'
p304
F13451.285198599264
sS'dallas'
p305
F33852.729569037794
sS'omaha'
p306
F10695.023457685253
sS'sale'
p307
F50958.86798317067
sS'guinn'
p308
F10595.949638900962
sS'st'
p309
F20572.146624421435
sS'hikes'
p310
F13756.590452849696
sS'costs'
p311
F61132.545435534426
sS'mass'
p312
F53003.11526438317
sS'pension'
p313
F22391.914354555982
sS'sets'
p314
F200651.98922583557
sS'tonnes'
p315
F20183.125580972915
sS'credits'
p316
F33315.58130934359
sS'laboratories'
p317
F14987.773780479749
sS'profits'
p318
F198131.43393908892
sS'turnover'
p319
F130017.62775032385
ssVwheat
p320
(dp321
S'irrigation'
p322
F3998.4254199942616
sS'switched'
p323
F4321.850525185589
sS'dollar'
p324
F3558.122874594131
sS'deliveries'
p325
F1531.049476620612
sS'sichuan'
p326
F5601.3727401015785
sS'farms'
p327
F2073.2331849036377
sS'milo'
p328
F2888.7578062927973
sS'decisions'
p329
F1652.1995752518744
sS'anglia'
p330
F2888.7578062927973
sS'eligible'
p331
F2027.8600812989005
sS'program'
p332
F11148.931514301621
sS'lawmakers'
p333
F1587.0184256990108
sS'acreage'
p334
F3175.8802827518157
sS'multifoods'
p335
F2250.9749682673155
sS'fao'
p336
F2161.361971316318
sS'exporters'
p337
F4060.6370401557356
sS'crops'
p338
F7115.979734736341
sS'louis'
p339
F1715.112255631275
sS'maha'
p340
F1826.4461366882858
sS'findings'
p341
F1633.737305964641
sS'japanese'
p342
F1950.0153579490345
sS'crop'
p343
F29480.857222417373
sS'rivers'
p344
F2451.006173102913
sS'rate'
p345
F3326.1566985397676
sS'enhancement'
p346
F26778.01035784427
sg110
F515981.22229239583
sS'melvin'
p347
F1945.2997400591244
sS'growers'
p348
F2508.7766779490285
sg87
F1941.1991173771676
sS'dormancy'
p349
F7163.640321302805
sS'staffers'
p350
F2888.7578062927973
sS'richard'
p351
F2906.3562654773827
sg17
F4414.394375332945
sS'bonuses'
p352
F6954.021319183478
sS'aground'
p353
F2592.932393625692
sg48
F1757.8948460333509
sS'supplies'
p354
F1649.8304629557415
sg103
F8809.3986148959
sS'nawg'
p355
F11540.215308197254
sS'exchange'
p356
F2548.1395009569856
sS'licences'
p357
F2889.7757988611475
sS'french'
p358
F3652.943585099991
sS'water'
p359
F1893.7199465226356
sS'china'
p360
F11221.507148678234
sS'egypt'
p361
F6148.425684599011
sS'dry'
p362
F8993.949544009456
sS'yemen'
p363
F2241.6622938691676
sg215
F10995.678411516868
sS'study'
p364
F2637.558054280003
sS'receivals'
p365
F2888.7578062927973
sS'cargill'
p366
F1787.4472604569748
sS'gene'
p367
F1826.4443863647562
sS'resurrected'
p368
F2888.7578062927973
sS'soybeans'
p369
F3112.686001329202
sS'legislator'
p370
F2888.7578062927973
sS'oecd'
p371
F2367.2638130198866
sS'subsidized'
p372
F18963.035898803126
sS'amstutz'
p373
F6891.293435503726
sS'australian'
p374
F3058.4239169172597
sS'prev'
p375
F2063.309192568228
sS'rainfall'
p376
F3236.8165349802453
sS'supporters'
p377
F1732.8660895195674
sS'india'
p378
F1919.3337133330263
sS'hoffman'
p379
F3648.583443101552
sS'meteorologist'
p380
F1826.4461366882858
sS'warm'
p381
F3429.2362328823847
sS'pacts'
p382
F2767.6704173834355
sS'bushels'
p383
F10179.936298517534
sS'organizations'
p384
F2218.210432900332
sS'onic'
p385
F6753.714474636822
sS'temperatures'
p386
F7082.9184020406365
sS'cam'
p387
F4331.873611969225
sS'arrive'
p388
F2148.8675294729114
sS'caf'
p389
F2250.9749682673155
sS'purchases'
p390
F3300.2011607899058
sS'subsidies'
p391
F4076.7851316533606
sg195
F2290.533739312295
sS'impeded'
p392
F1826.4443863647562
sS'guarantee'
p393
F1865.7274288736687
sS'winter'
p394
F55032.6021025696
sS'damage'
p395
F2130.6515870529106
sS'thous'
p396
F1732.8874843290705
sg269
F1827.837546826242
sg273
F3068.53785058724
sS'kcbt'
p397
F5774.148310436109
sg276
F3654.0953135793025
sS'schultz'
p398
F4499.290062755578
sS'farm'
p399
F13940.996905753404
sS'customs'
p400
F2381.579623665391
sg240
F4493.31095771861
sS'rudy'
p401
F2094.0712092516874
sS'lanka'
p402
F6368.869168412525
sS'commodity'
p403
F10381.91375970097
sS'commodities'
p404
F5656.533228280047
sS'denaturable'
p405
F2888.7578062927973
sS'banks'
p406
F3785.0265805144145
sS'talk'
p407
F3776.6169921768965
sg150
F1828.7919466238366
sS'administration'
p408
F4439.292715419573
sS'committee'
p409
F2159.669615368808
sS'japan'
p410
F1665.0432705147784
sS'cold'
p411
F11466.146536542343
sg26
F2465.4203823368857
sS'somewhere'
p412
F1826.4443863647562
sS'pct'
p413
F8356.659419683167
sS'acres'
p414
F2753.1087831735917
sS'durum'
p415
F18894.297587838053
sS'degrees'
p416
F5510.11858208753
sS'farmer'
p417
F3558.840615771087
sS'covered'
p418
F1780.9839221258135
sS'somebody'
p419
F2888.7578062927973
sS'prevented'
p420
F2450.988272790051
sS'flour'
p421
F20288.16277578225
sS'dan'
p422
F2997.2105416629947
sg59
F1792.2539759087272
sS'bank'
p423
F9072.040993362521
sS'bread'
p424
F3191.4760486959385
sS'cftc'
p425
F2786.688349898176
sS'kerin'
p426
F5774.148310436109
sS'weather'
p427
F16560.940421003696
sg72
F3125.9596122037215
sS'bond'
p428
F1649.733280190792
sS'honduras'
p429
F4165.735742581764
sS'house'
p430
F4539.236569468745
sS'hard'
p431
F2999.0434257596567
sS'aide'
p432
F14437.922612066282
sS'deficiency'
p433
F6358.039478701566
sg84
F1783.1637750463842
sS'inspections'
p434
F2597.679995032059
sS'agriculture'
p435
F41078.219493569515
sS'acreages'
p436
F2421.029265487391
sg93
F4307.4597178811955
sS'rep'
p437
F6019.743594693439
sS'laydays'
p438
F3045.7056377552935
sS'barley'
p439
F30244.163704630784
sS'shipment'
p440
F5258.245601619428
sS'boschwitz'
p441
F4669.661386980476
sS'red'
p442
F5667.765079711602
sS'free'
p443
F2268.696187249063
sS'proponents'
p444
F1606.6149826688284
sS'bwb'
p445
F4331.873611969225
sg119
F3445.963543409162
sS'aziz'
p446
F11534.85036614078
sS'estimate'
p447
F1983.764583715173
sS'krenzler'
p448
F7215.582619000908
sS'substantiate'
p449
F1826.4478869876298
sg143
F3123.4847214659453
sS'syria'
p450
F2592.943128533029
sS'secretary'
p451
F2223.7523182908326
sg149
F2448.362568861165
sS'feed'
p452
F9680.137526208175
sS'usda'
p453
F22332.588115694925
sS'accu'
p454
F2250.976670025404
sS'george'
p455
F3143.9335057509743
sS'destinations'
p456
F2665.1747920263865
sS'feedgrain'
p457
F1732.8696554395117
sS'iac'
p458
F2888.7578062927973
sS'melnikov'
p459
F3051.923739444233
sS'rates'
p460
F2671.352540238812
sS'moisture'
p461
F3525.6796182615276
sS'pakistani'
p462
F3650.7103512429976
sS'listen'
p463
F1826.4443863647562
sS'season'
p464
F9729.254555540401
sS'moscow'
p465
F23941.69025903767
sS'stangeland'
p466
F2592.9216582799654
sS'jordan'
p467
F1638.2302967916798
sS'cereal'
p468
F6843.479719492932
sS'roberts'
p469
F10555.34013108812
sS'dorgan'
p470
F2888.7578062927973
sS'showers'
p471
F3697.283484175801
sS'nights'
p472
F4331.873611969225
sS'snow'
p473
F9496.866851351255
sg265
F2099.3176535716193
sS'mayer'
p474
F1826.4461366882858
sS'shipments'
p475
F2214.9515382721916
sS'iwc'
p476
F20814.722246074485
sS'caputo'
p477
F1826.4461366882858
sS'awf'
p478
F4331.873611969225
sS'drought'
p479
F5919.37096600727
sS'awb'
p480
F23016.09861620105
sS'receival'
p481
F2888.7578062927973
sS'soviet'
p482
F49293.65315957692
sS'cover'
p483
F4850.3776507932225
sS'ccc'
p484
F10915.058419464896
sS'rupees'
p485
F3220.1918669058864
sS'soviets'
p486
F42171.09493872203
sS'knowledge'
p487
F3051.9013493591783
sg99
F2602.725916386952
sS'tartous'
p488
F1826.4461366882858
sS'adequate'
p489
F1535.8282418377717
sS'rice'
p490
F6648.556256046664
sS'congressional'
p491
F1865.7274288736687
sS'exports'
p492
F1825.4675853204826
sS'winterkill'
p493
F7292.714908053212
sS'reps'
p494
F2888.7578062927973
sg102
F2696.882725453761
sS'areas'
p495
F5107.988620330285
sg61
F4972.721277431517
sS'sowing'
p496
F1945.2970558175423
sS'stored'
p497
F1633.7550856626367
sg68
F1802.5073087451158
sS'release'
p498
F3761.0331740276047
sS'tightening'
p499
F1543.0647788500407
sS'pertains'
p500
F1826.4443863647562
sS'ivlev'
p501
F2888.7578062927973
sS'forego'
p502
F3051.8879145789697
sg77
F3109.35351793772
sS'disaster'
p503
F11403.945074120698
sS'subcommittee'
p504
F1912.9351364964082
sS'agricultural'
p505
F2068.8618325888115
sS'tender'
p506
F1644.1461713230995
sS'farmers'
p507
F11945.11417717396
sS'paice'
p508
F5774.148310436109
sS'droughts'
p509
F1732.883918645844
sS'commitments'
p510
F1612.3710457017237
sS'favor'
p511
F2677.626122910782
sS'state'
p512
F2378.8800334834978
sS'shultz'
p513
F22328.039126949232
sS'lobbyst'
p514
F2888.7578062927973
sg120
F1782.1590053407053
sS'debt'
p515
F4784.134523945135
sS'grain'
p516
F40185.13371153542
sS'redemptions'
p517
F1841.626254972125
sS'countertrade'
p518
F4538.986104491042
sS'forecaster'
p519
F3136.61175038787
sS'reconstitution'
p520
F1826.4461366882858
sS'initiative'
p521
F4671.311680671472
sS'housewife'
p522
F2888.7578062927973
sS'grazing'
p523
F1606.6096036892754
sS'seeding'
p524
F3045.6985326447393
sS'frosts'
p525
F2421.031919878482
sS'save'
p526
F1746.653944374081
sS'decoupling'
p527
F7237.360785267566
sS'union'
p528
F11283.193114843702
sS'subsidy'
p529
F35206.960527578725
sS'coarse'
p530
F6484.289701928745
sS'interest'
p531
F2540.365636452045
sS'pl'
p532
F3522.293910566815
sS'mcminimy'
p533
F4331.873611969225
sS'algeria'
p534
F7124.387261878708
sS'gas'
p535
F1757.8401215564481
sS'juvena'
p536
F1826.4461366882858
sS'pilot'
p537
F3886.9881299243466
sS'handling'
p538
F1638.2612372090405
sS'grains'
p539
F8287.993244062684
sS'bill'
p540
F13982.279891485621
sS'aid'
p541
F6076.592152272632
sS'flooding'
p542
F3429.261283399986
sS'cereals'
p543
F6499.8760339413275
sS'controversy'
p544
F1945.2997400591244
sS'grown'
p545
F3378.445338549876
sS'reminded'
p546
F1826.4443863647562
sS'inquiry'
p547
F3887.020324274035
sS'cotton'
p548
F2070.9626760971687
sS'oil'
p549
F3557.571540795361
sS'bonus'
p550
F21296.378123179304
sS'ranged'
p551
F1535.168848060695
sS'requests'
p552
F1538.0386400999632
sS'warming'
p553
F1762.78190011866
sS'gmp'
p554
F2888.7578062927973
sS'appropriated'
p555
F2250.9749682673155
sS'poland'
p556
F2381.6164878821837
sS'english'
p557
F4958.994173070823
sS'yangtze'
p558
F1606.6122931971622
sS'gsm'
p559
F2592.9395502792913
sS'martell'
p560
F3448.4864117187544
sS'sims'
p561
F2818.609886524466
sS'transshipment'
p562
F2250.9749682673155
sS'yen'
p563
F2723.5634654472096
sS'money'
p564
F2406.437542947677
sS'competitive'
p565
F4072.033569241386
sS'hofer'
p566
F1945.302424264168
sS'weekly'
p567
F1700.4612412328227
sS'authorizations'
p568
F2738.848126087139
sS'mohler'
p569
F2888.7578062927973
sS'rose'
p570
F1817.9783857688476
sS'wei'
p571
F1762.78190011866
sS'wen'
p572
F1606.6203615035015
sS'rebate'
p573
F2167.0346147877526
sS'tunisia'
p574
F1841.6155326226608
sS'guarantees'
p575
F2044.7552832326564
sS'villagers'
p576
F1826.4461366882858
sS'reorganizations'
p577
F2406.856758149628
sS'australia'
p578
F2969.1425842176313
sS'fieldwork'
p579
F2161.361971316318
sS'pse'
p580
F5138.427570619966
sS'sesostris'
p581
F2888.7578062927973
sS'semolina'
p582
F10119.472620785175
sS'accepted'
p583
F2517.3909570944197
sS'competitively'
p584
F5738.806376251431
sg60
F7741.531134960431
sS'submission'
p585
F2161.361971316318
sS'eep'
p586
F30660.69814553658
sS'securities'
p587
F2886.7521271351493
sS'soft'
p588
F25603.125432732846
sS'amendment'
p589
F2425.6950326428505
sS'glickman'
p590
F16168.104475460212
sS'senate'
p591
F1820.024231496436
sS'spring'
p592
F7422.725263429419
sS'export'
p593
F22732.785588891842
sS'convey'
p594
F2250.9749682673155
sS'home'
p595
F3154.551474888096
sS'sudan'
p596
F1868.5166642806564
sS'moos'
p597
F4331.873611969225
sg246
F2016.1902313008654
sS'fob'
p598
F5964.815420301921
sS'feedgrains'
p599
F26178.003145468363
sS'foley'
p600
F2888.7578062927973
sS'ecus'
p601
F5307.302157600798
sS'corn'
p602
F11833.278766949208
sS'ration'
p603
F2888.7578062927973
sS'rebates'
p604
F1842.6316041576151
sg118
F4720.502414095261
sS'stenholm'
p605
F4331.873611969225
sS'germination'
p606
F1826.4461366882858
sS'dormant'
p607
F2161.35929807149
sg126
F5963.160650400377
sS'sri'
p608
F8542.510816296142
sS'accepts'
p609
F5825.187021201601
sS'srw'
p610
F3842.605192141288
sS'wheats'
p611
F1762.773832425482
sS'washington'
p612
F8065.533903295074
sS'awaited'
p613
F5065.674518234474
sS'ussr'
p614
F14368.692859780975
sS'dreyfus'
p615
F5601.3727401015785
sg163
F2174.762288999446
sS'kay'
p616
F6046.2002880381215
sS'intervention'
p617
F2073.0287341698254
sS'maize'
p618
F1605.010155497135
sS'schlick'
p619
F2888.7578062927973
sS'bangladesh'
p620
F4065.7379753755226
sS'awarded'
p621
F2252.7229914541977
sS'interagency'
p622
F1762.7792109240145
sS'offer'
p623
F4770.463121895234
sS'frost'
p624
F2114.5134008791315
sS'lyng'
p625
F34017.93569918117
sS'bids'
p626
F4545.071118237888
sS'morocco'
p627
F1765.698034611665
sS'henan'
p628
F2241.6587080376958
sS'tonne'
p629
F11191.247310987825
sS'guesses'
p630
F2001.5164652319136
sS'liverpool'
p631
F2250.9749682673155
sS'cbt'
p632
F2466.576475246468
sg255
F5930.616408718001
sS'planting'
p633
F10085.216447540024
sS'department'
p634
F17628.289332842534
sg196
F6085.507703051966
sS'kansas'
p635
F7562.548523388267
sS'update'
p636
F1606.6122931971622
sS'exported'
p637
F2349.1421436068995
sg297
F8183.3869708597285
sg315
F83019.8408593758
sS'oklahoma'
p638
F2562.8778870689844
ssVmoney-fx
p639
(dp640
S'imbalances'
p641
F8356.531119715388
sS'help'
p642
F24271.866707656798
sS'hovered'
p643
F5250.667743758621
sg563
F165379.78631347543
sS'undervalued'
p644
F12093.306458056024
sg564
F207097.2025554447
sS'agreed'
p645
F7054.089830455204
sS'hands'
p646
F7598.384422684923
sg324
F382082.4556471087
sS'viermetz'
p647
F7025.599742686939
sg58
F9568.555093271549
sS'stability'
p648
F59123.106116731564
sS'session'
p649
F14977.31243621854
sS'london'
p650
F13964.321666761685
sS'ministers'
p651
F7250.266033466675
sS'turbulence'
p652
F9058.077110796803
sg410
F80285.47665299088
sS'taiwan'
p653
F11215.653307623856
sS'credited'
p654
F5250.667743758621
sS'economist'
p655
F6521.34110727229
sS'coordination'
p656
F6224.57338626233
sS'heller'
p657
F13936.188552652367
sS'cut'
p658
F12422.075119523479
sS'imf'
p659
F5073.218014879063
sS'paris'
p660
F112524.89650965344
sS'devaluation'
p661
F8198.064660672599
sS'siew'
p662
F7328.748836682184
sS'deposits'
p663
F7215.972385157926
sS'controls'
p664
F7835.561655868431
sS'phlx'
p665
F15265.571726368911
sS'german'
p666
F10550.1382039413
sS'add'
p667
F16196.108845660314
sS'foster'
p668
F29031.486625455094
sS'swap'
p669
F14003.966740568334
sS'treasury'
p670
F51583.63087042897
sS'policy'
p671
F35105.437586570035
sS'stable'
p672
F10342.70463943241
sS'lira'
p673
F6123.1258139273195
sS'nashashibi'
p674
F5987.2789923656765
sS'told'
p675
F5435.281813407306
sS'kwacha'
p676
F7205.961512188591
sS'bahrain'
p677
F19314.025487078463
sS'inflows'
p678
F6414.191560463612
sS'within'
p679
F6438.200911793
sS'around'
p680
F62072.90967417265
sS'broadly'
p681
F7940.010566447397
sS'government'
p682
F6114.888566525926
sS'far'
p683
F11298.634741403066
sS'advances'
p684
F11280.736870786635
sS'zambia'
p685
F9646.44376574794
sS'rise'
p686
F8733.16273126463
sg61
F7916.942517542475
sS'arab'
p687
F16348.010882803543
sS'band'
p688
F96102.33884065141
sS'inflation'
p689
F5699.231873598989
sS'stoltenberg'
p690
F20342.88263648491
sS'closely'
p691
F7341.848685386553
sS'fall'
p692
F13225.321946698134
sS'stabilise'
p693
F22271.137306295437
sg157
F5938.865783097884
sg423
F196623.59569740033
sg60
F11334.8027094764
sS'outright'
p694
F21385.659654051185
sS'liffe'
p695
F11650.438435798658
sS'necessary'
p696
F11142.225939623033
sS'mulford'
p697
F13311.638280880197
sS'stabilize'
p698
F21188.744243322726
sS'level'
p699
F9221.883839400829
sS'james'
p700
F11771.483337064514
sS'concerted'
p701
F10027.064030127991
sS'intervene'
p702
F48826.59989212434
sS'comprising'
p703
F12779.146684473908
sS'european'
p704
F5149.055113587163
sS'morning'
p705
F25536.913636736026
sS'banking'
p706
F13116.718769917006
sS'lawson'
p707
F26808.09705886525
sS'underlying'
p708
F11595.080009615218
sS'bouldikian'
p709
F5729.774713871483
sS'ems'
p710
F64128.86123278923
sS'shortage'
p711
F71684.75331279679
sS'naira'
p712
F19075.05965898956
sS'bills'
p713
F76784.88265703601
sS'outflows'
p714
F7239.60119434295
sS'intervening'
p715
F8714.453710029447
sS'asked'
p716
F6444.366277581431
sS'set'
p717
F10184.54527328639
sS'england'
p718
F86618.06175252881
sS'fecs'
p719
F9546.16576740631
sS'carritt'
p720
F7638.315865621104
sS'revised'
p721
F16386.464741155847
sS'basket'
p722
F8274.458857332655
sg342
F25448.50392854642
sS'repurchases'
p723
F12927.907748926285
sS'budget'
p724
F12623.952341469534
sg345
F71149.53574334392
sS'economic'
p725
F30261.222136557128
sS'trading'
p726
F19071.66956721786
sS'riyal'
p727
F11089.228406942297
sS'hungary'
p728
F6868.738790820141
sS'eyskens'
p729
F17935.568220711593
sS'kaunda'
p730
F8200.019865396558
sS'europeans'
p731
F6650.94264966141
sS'provided'
p732
F20528.451801991585
sg89
F19003.77128139585
sS'swaps'
p733
F8097.2171530406085
sS'sentiment'
p734
F10053.800310849987
sS'factors'
p735
F12276.469660400426
sS'federal'
p736
F16553.445146263624
sS'assistance'
p737
F74512.97669030851
sS'since'
p738
F7752.961635438636
sS'dattel'
p739
F5729.774713871483
sS'slide'
p740
F8805.44843605777
sg17
F6652.414555765233
sS'forecast'
p741
F9329.356851567129
sg247
F7849.261171218689
sS'governors'
p742
F12659.420391395937
sS'risk'
p743
F6550.137929767791
sS'giordano'
p744
F15265.571726368911
sS'deficit'
p745
F18310.720715398948
sS'cooperation'
p746
F7060.876696206483
sS'bundesbank'
p747
F69030.09088202119
sg103
F11951.562542901615
sS'remittances'
p748
F6542.537260505039
sS'bought'
p749
F10482.832493176975
sS'metall'
p750
F7638.315865621104
sS'accord'
p751
F44648.15839156481
sS'denominator'
p752
F7638.315865621104
sg110
F6780.270089259417
sS'forint'
p753
F12531.74575613348
sg356
F133928.27679085685
sS'industrialized'
p754
F10116.068868782459
sS'monetary'
p755
F88971.72652172878
sS'ranges'
p756
F17409.89112296172
sS'houses'
p757
F10481.407914444546
sS'volcker'
p758
F19731.3560958838
sg118
F8256.24420636514
sS'repurchase'
p759
F44443.07577903907
sg447
F6032.558896925651
sS'extreme'
p760
F6599.072188534339
sg126
F10232.50809442196
sS'fixed'
p761
F7488.204170372001
sS'central'
p762
F157004.29267836123
sS'g'
p763
F43223.31619385044
sg215
F17026.83261685076
sS'auction'
p764
F15890.94389164682
sS'oman'
p765
F6542.537260505039
sS'dollars'
p766
F52041.90074020597
sS'plaza'
p767
F13321.48479392204
sS'quiet'
p768
F5903.083892497279
sS'foreign'
p769
F41411.47484059232
sS'pact'
p770
F5725.697383569846
sS'depreciated'
p771
F7638.315865621104
sS'industrialised'
p772
F8074.554996093028
sS'afternoon'
p773
F22037.23615856961
sS'auctions'
p774
F11467.666331725402
sS'leading'
p775
F9577.354094191529
sg451
F5978.719783216467
sS'stimulate'
p776
F9899.919637936166
sS'comment'
p777
F7976.779536990392
sS'among'
p778
F10218.463842013722
sS'major'
p779
F21994.672233987094
sS'industrial'
p780
F12809.940756931552
sS'see'
p781
F5206.717957709883
sS'economists'
p782
F23013.455059812593
sS'point'
p783
F8676.926768432257
sS'poehl'
p784
F9334.503597159646
sg93
F6635.931905598019
sS'invited'
p785
F5040.110497735716
sS'draining'
p786
F5271.1806304459105
sS'balances'
p787
F13554.050409337211
sS'remarks'
p788
F10502.757035266695
sS'appropriate'
p789
F6226.2419935185835
sS'movements'
p790
F6686.775143331445
sS'says'
p791
F15194.332806019163
sS'mark'
p792
F15372.243978775407
sS'market'
p793
F130668.85520961878
sg617
F82009.0385402139
sS'late'
p794
F6485.605523512719
sS'fed'
p795
F66440.10327825633
sS'parities'
p796
F5679.284010955138
sS'sceptical'
p797
F5729.962819686413
sS'exchequer'
p798
F20947.44682581147
sS'would'
p799
F7156.817762086517
sS'kiichi'
p800
F23040.84450628811
sS'west'
p801
F24577.713863998164
sS'comments'
p802
F5370.382069753893
sS'system'
p803
F46840.46841799126
sS'france'
p804
F25096.048960660526
sS'needed'
p805
F5925.371918044892
sS'pegged'
p806
F5250.656226998926
sg460
F127284.88397084056
sS'agreements'
p807
F9315.861003084905
sg531
F12110.94520144486
sS'expected'
p808
F4975.204773401957
sS'call'
p809
F14877.117447847146
sS'countries'
p810
F7226.873549254136
sS'markets'
p811
F23571.870050647816
sS'consistent'
p812
F7027.147959595171
sS'today'
p813
F35977.497664212766
sS'low'
p814
F8907.00853105248
sS'via'
p815
F10193.57702515579
sS'partly'
p816
F8033.438749886605
sS'behind'
p817
F5906.963508128271
sS'fundamentals'
p818
F29587.652977594033
sS'funds'
p819
F26049.232858275842
sg196
F10211.681169294727
sg37
F22318.510349691805
sg549
F7846.293699920261
sS'cooperate'
p820
F30344.91444693718
sg77
F4950.823581866892
sS'gleske'
p821
F7902.311309194502
sS'circular'
p822
F5729.774713871483
sS'sprinkel'
p823
F5148.603484857749
sS'coordinated'
p824
F6224.57338626233
sS'nervously'
p825
F5987.2789923656765
sS'given'
p826
F13522.46372578571
sS'interbank'
p827
F5352.720007104033
sS'production'
p828
F5091.397869858034
sS'customer'
p829
F34518.939089185726
sS'lebanese'
p830
F11462.206162573148
sg212
F189121.09979271158
sS'rebound'
p831
F6010.084485953956
sS'target'
p832
F19734.792595819745
sS'circulation'
p833
F12543.222977021862
sS'tokyo'
p834
F41664.59698893144
sS'meeting'
p835
F5477.927199608642
sS'official'
p836
F8431.528662662102
sS'darman'
p837
F24784.124982966707
sS'governor'
p838
F14306.20461939156
sS'nations'
p839
F65215.466345662615
sg245
F9653.784385844107
sS'growth'
p840
F7972.509282708616
sS'azzam'
p841
F13359.793322712656
sS'policies'
p842
F12357.822240799747
sS'horner'
p843
F5476.739157845489
sS'necessarily'
p844
F5179.378481857685
sS'pressure'
p845
F6589.990868865421
sS'could'
p846
F5153.777222830372
sS'say'
p847
F9982.300006953581
sS'election'
p848
F6609.103502866196
sS'pound'
p849
F9123.395883291834
sS'maekawa'
p850
F11467.681433753469
sS'takes'
p851
F5849.001997232157
sS'chancellor'
p852
F5770.9416342408895
sS'strengthen'
p853
F6137.002167116493
sS'fluctuation'
p854
F5073.397273830969
sg240
F7429.768424998191
sS'dhabi'
p855
F5596.9997912356985
sS'departure'
p856
F6701.792640112985
sS'early'
p857
F12369.63372408163
sS'currency'
p858
F222483.6024580671
sS'britain'
p859
F16875.261918211792
sS'reserves'
p860
F13884.875537502176
sS'offsetting'
p861
F7179.8519018068655
sS'take'
p862
F5639.986472500937
sS'ortner'
p863
F12427.746180507764
sS'dealer'
p864
F17508.881133167062
sS'finance'
p865
F10095.741567264176
sS'parliamentary'
p866
F7287.758341782144
sS'maturing'
p867
F10151.738014725686
sS'gcc'
p868
F7902.296940602219
sS'brings'
p869
F5151.823186815157
sS'satoshi'
p870
F16305.078866149483
sS'speculative'
p871
F9121.937059745804
sS'indirectly'
p872
F7450.982802394198
sg261
F7026.411049573031
sS'inject'
p873
F5596.9997912356985
sS'compares'
p874
F14454.435766907874
sS'economy'
p875
F16888.549488606186
sS'bands'
p876
F10192.465286405351
sS'discount'
p877
F9392.331283976757
sg255
F8705.135558262471
sS'operators'
p878
F6404.189402888156
sS'miyazawa'
p879
F68481.97638094258
sS'sterling'
p880
F34683.03224674751
sS'mueller'
p881
F8773.165549759618
sS'currencies'
p882
F127021.18097228433
sS'temporary'
p883
F13520.804018729512
sS'intervenes'
p884
F6414.2167423486635
sS'transactions'
p885
F18339.56093957537
sS'intervened'
p886
F36167.51436534198
sS'measures'
p887
F11467.913657284573
sS'yesterday'
p888
F7352.718393568474
sS'push'
p889
F10135.123070705462
sS'levels'
p890
F21643.965739858682
sS'germany'
p891
F38280.97500322229
sS'refrain'
p892
F5250.673502018968
sS'bergsten'
p893
F5679.291437582263
sS'authorities'
p894
F10601.82946470875
sS'herstatt'
p895
F9546.16576740631
sS'guilders'
p896
F14616.055891183707
sS'melamed'
p897
F13359.793322712656
sS'parallel'
p898
F7179.882317663913
sS'opened'
p899
F7348.063154050711
sg297
F9720.981440039175
sS'sumita'
p900
F66984.06205399481
sS'drain'
p901
F24319.986925676763
sS'dealers'
p902
F155083.75578742693
sS'fathers'
p903
F5729.774713871483
sS'baker'
p904
F47345.622640622816
sS'surging'
p905
F5729.774713871483
sS'changed'
p906
F5473.1579651656775
sS'bankers'
p907
F10386.670036122769
sS'eased'
p908
F7946.418293816585
sS'devalue'
p909
F8111.806480262507
sS'resale'
p910
F8771.075135238658
sS'dinar'
p911
F8923.48455222029
sS'overnight'
p912
F6467.781305661014
sS'narrow'
p913
F5940.04452427915
sg406
F30238.666834840533
sg315
F13825.280801894907
sS'otsuki'
p914
F5385.1583420640845
sS'frankfurt'
p915
F7762.724165027179
sS'liquidity'
p916
F57194.62898116445
sS'reserve'
p917
F20223.696076933673
ssVcorn
p918
(dp919
g323
F4803.0031995764475
sg324
F3239.798254036203
sS'yellow'
p920
F3394.1118326043807
sS'upholds'
p921
F3986.8854528297134
sg331
F1751.9302429119966
sS'cigra'
p922
F2001.7296716111032
sg332
F15708.232207942834
sS'rukwa'
p923
F1576.5748915426364
sS'midwest'
p924
F5280.492153049038
sg686
F1580.2283329156114
sg334
F21716.1831322518
sg337
F2300.2239053714925
sg338
F7028.718312804377
sS'skewed'
p925
F1673.8170472570325
sS'lightest'
p926
F1576.5748915426364
sg343
F15758.079674728395
sS'associaiton'
p927
F1576.5748915426364
sg345
F2127.57543019716
sS'epac'
p928
F22283.568487986595
sS'rouen'
p929
F2480.54275553041
sg601
F6728.497141069124
sg348
F16717.481094924184
sS'chicago'
p930
F2574.3319228680734
sg17
F3897.460059305872
sS'certificates'
p931
F11450.85276246735
sg354
F2294.4030003355297
sg103
F8236.982481297768
sg356
F2352.7822323534747
sg357
F5416.70729819974
sg358
F9322.770131389545
sg360
F1760.566797900356
sS'ethanol'
p932
F2053.035295273797
sS'ghent'
p933
F1576.5748915426364
sg604
F5953.553120225651
sg362
F3578.112019756764
sS'enroll'
p934
F3432.4482649333295
sS'exemption'
p935
F2771.9384254320885
sg215
F7788.05815448491
sS'commonly'
p936
F1673.8170472570325
sS'countervail'
p937
F1576.5748915426364
sS'stabilization'
p938
F2480.494512774235
sg369
F4338.028658933716
sS'iringa'
p939
F3152.1546905633913
sS'county'
p940
F1580.3896478081042
sS'soybean'
p941
F8111.075734429232
sS'total'
p942
F3266.978770299262
sg246
F1551.709029847091
sg315
F75415.5591950617
sS'injure'
p943
F3986.8854528297134
sS'tenders'
p944
F11283.98651882487
sg371
F2709.913670534455
sS'indiana'
p945
F1629.3822007076349
sS'injury'
p946
F1715.9441774548322
sS'rios'
p947
F1814.4461460440557
sS'iris'
p948
F3152.1546905633913
sg196
F6092.910809935484
sS'cereais'
p949
F3152.1546905633913
sS'stonnes'
p950
F1576.5748915426364
sS'harvest'
p951
F15793.400230636667
sg383
F21780.472809450268
sS'tribunal'
p952
F4919.928399155277
sS'ers'
p953
F1576.5748915426364
sS'mm'
p954
F1441.7829358252754
sS'nino'
p955
F3272.3485892703075
sg390
F2446.8217778259655
sS'ascensao'
p956
F3152.1546905633913
sg391
F8000.840225942255
sg240
F3522.643452037122
sg860
F1517.992126526002
sS'martyr'
p957
F1576.5748915426364
sg394
F1987.2275585383004
sS'silos'
p958
F1576.5748915426364
sg395
F2054.8291191767057
sg396
F3177.871675328647
sS'rounnd'
p959
F1576.5748915426364
sg269
F1670.2272753001882
sS'buenos'
p960
F7520.595891473938
sS'cst'
p961
F2001.7296716111032
sg273
F2823.864127266403
sg685
F1452.2648515387841
sg276
F4700.058378872807
sS'ovr'
p962
F4990.942844038134
sS'administrator'
p963
F1495.3752558174863
sS'therby'
p964
F1576.5748915426364
sg399
F7037.043803427076
sg143
F2862.378383430177
sS'fe'
p965
F1625.5193296378961
sS'inconceivable'
p966
F1576.5748915426364
sg406
F3628.080542789189
sg407
F1706.2006049669326
sg452
F5281.587940534365
sS'cropland'
p967
F2657.325738677534
sS'unjustified'
p968
F3432.4482649333295
sS'pascal'
p969
F1576.5748915426364
sg650
F2637.90058635857
sS'difference'
p970
F3618.318157234885
sg26
F2197.103925931801
sS'afbf'
p971
F1576.5748915426364
sg414
F49224.855909376725
sg828
F4311.621741772332
sg417
F2771.949203284168
sS'argentina'
p972
F3544.1594455891145
sS'silo'
p973
F1576.5748915426364
sS'argentine'
p974
F4907.364828917385
sS'republican'
p975
F2125.415627378149
sS'rental'
p976
F2572.1502005207726
sS'sweetener'
p977
F8941.717499927317
sg423
F8021.876191822207
sg424
F1611.5880225398284
sS'chinkuli'
p978
F3152.1546905633913
sS'february'
p979
F1639.8472835142736
sS'january'
p980
F1440.776544992116
sS'peasant'
p981
F1576.5748915426364
sS'euqivalent'
p982
F1576.5748915426364
sg72
F2422.620716841335
sg428
F1643.2165146216453
sS'aweke'
p983
F2001.73142796576
sg429
F1782.8699050662453
sg433
F11036.623759605724
sg434
F4083.413056784143
sg435
F19211.679955198026
sg93
F4109.034183678685
sg439
F9521.84801775864
sg440
F3549.766267475997
sg443
F2296.9429358435605
sg119
F3007.155044265128
sS'lof'
p984
F1576.5748915426364
sg447
F1482.972873306937
sS'farmland'
p985
F1957.9973833086308
sS'bumper'
p986
F2657.3284041293973
sS'bushel'
p987
F19086.438611620597
sg150
F1682.9557526163003
sS'erodoble'
p988
F1576.5748915426364
sg453
F51676.68881255218
sS'hackmann'
p989
F5309.482960989951
sS'mbeya'
p990
F1576.5748915426364
sS'spanish'
p991
F6451.219488590584
sS'singling'
p992
F1576.5748915426364
sg456
F5828.1382257702235
sg457
F1922.0225415561872
sS'unknown'
p993
F11444.630461714769
sg459
F5014.907829908318
sS'burgess'
p994
F6300.332692865787
sS'syrup'
p995
F9384.299471515464
sS'plantings'
p996
F4240.236479543148
sg461
F3928.5340843182444
sS'sete'
p997
F1576.5748915426364
sS'estimates'
p998
F7012.390937124676
sg465
F3171.2585791624397
sS'ascs'
p999
F7076.977801875186
sg468
F2698.8281583993075
sS'haubourdin'
p1000
F2001.73142796576
sg212
F2969.0080168233108
sS'oats'
p1001
F2698.8081030637977
sS'submitted'
p1002
F1540.376242156387
sS'counselor'
p1003
F6435.2976632569
sS'idled'
p1004
F2233.629588934558
sS'sweeteners'
p1005
F4640.9887214135315
sS'imports'
p1006
F3492.479719631284
sg265
F1920.0022765078252
sg464
F11592.563075687009
sS'interior'
p1007
F5313.071636717388
sS'signup'
p1008
F13234.348078738618
sg475
F3661.6916808449732
sS'cordoba'
p1009
F5853.272698081476
sS'intentions'
p1010
F2436.366641358513
sS'aires'
p1011
F7520.595891473938
sS'tanzania'
p1012
F3177.849122042239
sS'yang'
p1013
F2001.73142796576
sS'bordeaux'
p1014
F1576.5748915426364
sS'deng'
p1015
F4999.486543361122
sS'nichemen'
p1016
F1428.337165777151
sS'accession'
p1017
F3647.8108010600004
sS'certs'
p1018
F13690.33225513951
sS'sown'
p1019
F2878.3765029648634
sS'freight'
p1020
F3830.50463280995
sg486
F7211.579489284756
sS'gulf'
p1021
F9367.680199914801
sS'sugar'
p1022
F2731.682977708304
sS'cindasa'
p1023
F3152.1546905633913
sS'planted'
p1024
F14815.098813123173
sg490
F1487.351154724549
sS'hall'
p1025
F1493.9165949851642
sS'dn'
p1026
F1428.337165777151
sS'braceras'
p1027
F3152.1546905633913
sS'mge'
p1028
F4418.465231748365
sS'starch'
p1029
F3363.2299374416716
sS'comodity'
p1030
F1576.5748915426364
sg102
F3751.426384611857
sS'report'
p1031
F4119.919136321045
sS'katharina'
p1032
F1576.5748915426364
sS'abastecimiento'
p1033
F1576.5748915426364
sg495
F3298.2086790828075
sg61
F4576.2784482729585
sg68
F1939.8207326981646
sg77
F2861.4259086489874
sS'arusha'
p1034
F1576.5748915426364
sS'unpublished'
p1035
F2001.73142796576
sS'differentials'
p1036
F2303.3423685446255
sS'signups'
p1037
F3345.4498572428206
sS'lisbon'
p1038
F2141.793426218346
sS'sen'
p1039
F1675.4091308084237
sg89
F1712.3066686846937
sg507
F16254.284760385333
sg551
F7126.504841576287
sg510
F1426.4330533018422
sg99
F2322.9269177181773
sS'ostensible'
p1040
F3152.1546905633913
sS'toledo'
p1041
F2233.650885275562
sS'import'
p1042
F3668.9050926742198
sS'pampa'
p1043
F3197.868929164877
sS'barreto'
p1044
F7088.605006859542
sS'garlem'
p1045
F3001.628138337962
sS'importers'
p1046
F1540.317593751786
sg120
F1640.040836997436
sg515
F4689.414905269222
sS'gustafson'
p1047
F3986.8854528297134
sS'fraternite'
p1048
F1576.5748915426364
sS'erodable'
p1049
F3152.1546905633913
sS'ferruzzi'
p1050
F1653.515363374142
sg769
F2804.4021904344477
sS'unc'
p1051
F9250.598927326184
sg516
F63693.471611204084
sg517
F2040.0477115042208
sS'context'
p1052
F1465.0952956940912
sg570
F1699.2154257882385
sg552
F1729.5087322510296
sS'duty'
p1053
F5161.392505350799
sS'transvaal'
p1054
F3152.1546905633913
sS'belt'
p1055
F4261.530767048351
sg527
F3692.4116110227706
sg528
F3258.7941472096495
sS'resende'
p1056
F3986.8854528297134
sS'certify'
p1057
F2001.73142796576
sg529
F7659.450848422297
sS'kahn'
p1058
F5533.239716144965
sg530
F2304.3519143552503
sg531
F2625.629445109681
sS'acre'
p1059
F10061.343074403707
sS'louisiana'
p1060
F2650.944922798379
sS'compania'
p1061
F1576.5748915426364
sg535
F1760.9623259128546
sS'garnac'
p1062
F1576.5748915426364
sS'gao'
p1063
F5159.98020047056
sS'sensed'
p1064
F1576.5748915426364
sS'yugoslav'
p1065
F3080.025376660287
sS'spain'
p1066
F3381.694617377957
sg539
F4431.411556815651
sS'enrollment'
p1067
F10439.774568933535
sS'canadian'
p1068
F2283.3036075932623
sS'caving'
p1069
F1576.5748915426364
sS'sorghum'
p1070
F26065.610242742558
sg543
F2160.221572141303
sS'inteview'
p1071
F1576.5748915426364
sS'rubibira'
p1072
F3152.1546905633913
sS'generic'
p1073
F4591.245975569235
sg408
F1441.5911701718992
sS'quesstimate'
p1074
F1576.5748915426364
sS'ethiopia'
p1075
F2040.0405009494048
sS'und'
p1076
F4694.571228001421
sS'liberalised'
p1077
F2040.029684754623
sS'frazier'
p1078
F4279.361359176975
sS'week'
p1079
F2469.671430663458
sg549
F4091.2859157265634
sS'flooded'
p1080
F1715.9656699953227
sS'barges'
p1081
F2473.977426298032
sS'producers'
p1082
F3920.376163906555
sS'hectares'
p1083
F8545.834136494952
sS'diversion'
p1084
F2141.790726658758
sS'vieux'
p1085
F2375.966319057732
sS'agrianalysis'
p1086
F2001.7296716111032
sS'entre'
p1087
F1814.4461460440557
sg482
F31355.362813831252
sg560
F3793.0642420500862
sg563
F2506.389342376619
sg564
F2358.6128022424728
sg565
F2459.271662940869
sS'sources'
p1088
F3700.2036024247295
sg653
F2876.6019745863737
sS'sunflower'
p1089
F3786.802464820674
sS'gmb'
p1090
F1576.5748915426364
sg573
F4863.098813322519
sS'usage'
p1091
F3071.1429119643076
sS'stowed'
p1092
F3152.1546905633913
sS'harvesting'
p1093
F4802.584419685077
sg44
F2186.3195380998495
sg580
F5635.263518134054
sS'injuring'
p1094
F3001.6255043421716
sS'barge'
p1095
F5280.528187951787
sg583
F1734.269920868606
sS'hfcs'
p1096
F9827.322837078778
sS'countervailing'
p1097
F2313.88497808254
sS'reexported'
p1098
F1576.5748915426364
sg60
F7112.264528239701
sS'vernes'
p1099
F2040.0549218656818
sS'sindt'
p1100
F5997.449432400761
sg586
F1847.1086629069312
sg587
F2500.233565769253
sg588
F2201.1565740959436
sg590
F1838.120119498474
sg591
F2137.212365003247
sS'enrolling'
p1101
F2001.7296716111032
sS'dole'
p1102
F22049.0074649571
sg840
F1640.545269361655
sg593
F9581.695330701921
sS'publica'
p1103
F3152.1546905633913
sS'agpm'
p1104
F3345.446288626829
sS'kaysersberg'
p1105
F2001.73142796576
sS'decision'
p1106
F1578.4265052012831
sg96
F1561.1108226556476
sg745
F1615.0518832616224
sg598
F10804.12034744479
sg599
F2041.1220359174329
sg110
F22448.063397733353
sS'marketing'
p1107
F2767.6030350401647
sg602
F338968.80383885157
sS'managament'
p1108
F1576.5748915426364
sS'outlays'
p1109
F2572.1502005207726
sS'acitivity'
p1110
F1576.5748915426364
sg118
F4921.844454774343
sS'nmc'
p1111
F1576.5748915426364
sS'santa'
p1112
F1541.4705117916064
sS'pasta'
p1113
F3001.6228703099127
sg126
F7578.837644074974
sg762
F1457.3271601193605
sS'empty'
p1114
F1542.1634508944787
sg610
F1967.6946673597674
sS'stolte'
p1115
F1576.5748915426364
sS'heavy'
p1116
F1558.2356562541356
sS'portuguese'
p1117
F1814.4353721428752
sg612
F2984.171532458721
sg427
F4895.254388587063
sg615
F3252.8690343108337
sS'ruvuma'
p1118
F1576.5748915426364
sg163
F1845.7707003284986
sg618
F125686.25301792023
sS'province'
p1119
F1987.1394023864038
sS'area'
p1120
F6179.4848122835165
sS'karnes'
p1121
F1576.5748915426364
sS'conservation'
p1122
F24597.833427479203
sS'valencia'
p1123
F2001.73142796576
sg297
F5958.2794973704285
sS'abastecimento'
p1124
F3152.1546905633913
sS'gluten'
p1125
F3345.4498572428206
sS'delivery'
p1126
F11587.745464078092
sg373
F4070.261671509924
sS'monopoly'
p1127
F2853.931556960629
sg625
F3373.1479469329574
sg626
F1739.2822352350563
sS'maximum'
p1128
F1718.089463769203
sS'harvested'
p1129
F5491.516456526438
sg725
F1466.192304099864
sS'ruling'
p1130
F5735.9202499606145
sg614
F19220.267897760987
sg629
F9017.434428693674
sS'pik'
p1131
F13749.108302816476
sg630
F5642.611140579497
sg376
F2537.0824799966076
sS'readmitted'
p1132
F1576.5748915426364
sS'cbo'
p1133
F3152.1546905633913
sS'paradoxically'
p1134
F1576.5748915426364
sS'injurious'
p1135
F2001.73142796576
sg255
F5349.485629975877
sg633
F5484.261561209303
sS'acico'
p1136
F4726.7403178026425
sS'huckaby'
p1137
F14710.993521115815
sS'rains'
p1138
F15668.9397006629
sS'storage'
p1139
F2069.940413624206
sg634
F8581.44944231222
sS'incomprehensible'
p1140
F1576.5748915426364
sS'zimmer'
p1141
F2001.7296716111032
sS'requested'
p1142
F2058.02132876419
sg635
F2279.5202990497205
sS'kingsley'
p1143
F1576.5748915426364
sS'fructose'
p1144
F7396.261137481107
sS'ago'
p1145
F2330.6508215593853
sS'land'
p1146
F2170.9258472133115
sS'enrolled'
p1147
F8074.945549490898
sS'international'
p1148
F2539.3361800398843
sS'pods'
p1149
F1465.1236682254346
ssVtrade
p1150
(dp1151
S'yasuhiro'
p1152
F15857.282397808238
sS'shiratori'
p1153
F5510.256657466137
sS'global'
p1154
F5087.831947151504
sS'denman'
p1155
F10343.309818653062
sS'irritants'
p1156
F7521.84904335315
sS'talks'
p1157
F17191.94905033454
sS'row'
p1158
F7279.531059339451
sS'venice'
p1159
F16513.481386058094
sS'tariff'
p1160
F8488.686439175093
sS'byrd'
p1161
F12848.2979556855
sS'send'
p1162
F6631.844659572618
sg333
F7264.349004412568
sS'reneging'
p1163
F11107.073736340535
sS'mps'
p1164
F7345.727123502776
sS'sanctions'
p1165
F86309.60251729077
sS'democrat'
p1166
F16742.086018507096
sS'try'
p1167
F7382.647641177279
sS'round'
p1168
F30776.56188027874
sS'warns'
p1169
F7633.054409261743
sg342
F101660.75691410848
sg724
F5407.120444119194
sS'hitachi'
p1170
F4692.660072303578
sS'pass'
p1171
F5735.794789091025
sS'toughen'
p1172
F18345.114966851652
sS'makers'
p1173
F28730.232973917766
sS'representative'
p1174
F15477.420719052596
sS'nec'
p1175
F6683.932224033284
sg17
F6940.825746756937
sS'access'
p1176
F13361.560716307658
sS'firms'
p1177
F5336.70481679257
sS'microchip'
p1178
F33557.05592950066
sS'boost'
p1179
F4579.754601770878
sg675
F17539.28847978705
sS'kuranari'
p1180
F7574.257910069807
sS'avert'
p1181
F5085.868142989899
sS'partners'
p1182
F6568.535922147048
sS'understanding'
p1183
F5193.282957779305
sS'mulroney'
p1184
F20043.670815536207
sg215
F18196.587377016105
sg247
F5281.323906038265
sS'products'
p1185
F7227.247597577521
sS'bentsen'
p1186
F7866.406643679858
sS'action'
p1187
F12884.78862823758
sS'taipei'
p1188
F5590.743028247988
sS'clark'
p1189
F9675.794607971522
sS'semiconductors'
p1190
F80669.07178741158
sS'reagan'
p1191
F63965.138514072605
sS'channon'
p1192
F18345.114966851652
sS'thatcher'
p1193
F5735.845888100153
sS'visible'
p1194
F4797.003880166315
sS'semiconducter'
p1195
F5510.256657466137
sS'surpluses'
p1196
F15401.500960990286
sS'herring'
p1197
F11014.747437718323
sS'ligero'
p1198
F5510.256657466137
sg799
F13382.411890902853
sS'visit'
p1199
F19881.352950684286
sg651
F27951.546706142428
sS'next'
p1200
F4781.258469740287
sg371
F6168.062470745706
sS'live'
p1201
F6759.438074498485
sS'pollock'
p1202
F5510.256657466137
sS'reciprocity'
p1203
F7521.84904335315
sS'memory'
p1204
F8347.399184444952
sS'concepcion'
p1205
F9772.591809055335
sg811
F19787.507614251226
sS'chip'
p1206
F94496.17906711923
sS'commissioner'
p1207
F6102.081743784081
sg196
F9088.90862459117
sS'warn'
p1208
F5592.800414743892
sS'effort'
p1209
F5927.954316760732
sS'must'
p1210
F10950.492694806073
sS'account'
p1211
F30299.4068168943
sg834
F11970.674362653497
sS'nakasone'
p1212
F67151.46758410537
sS'shoichi'
p1213
F5510.256657466137
sS'growing'
p1214
F6314.565953231435
sS'saba'
p1215
F7345.727123502776
sS'wang'
p1216
F6437.974810635449
sS'uruguay'
p1217
F30084.828762071684
sg391
F6438.302765784542
sg240
F6189.8378671146465
sS'boycott'
p1218
F8909.54933917192
sS'states'
p1219
F61373.05578868721
sS'huge'
p1220
F6403.866443875042
sS'united'
p1221
F57628.75263057812
sS'gatt'
p1222
F160596.68984323044
sS'wartenberg'
p1223
F7345.727123502776
sg273
F5080.463362470457
sg276
F6090.193881834163
sS'levy'
p1224
F5135.6293460974075
sS'seoul'
p1225
F7904.398013960699
sS'hata'
p1226
F14681.209160361894
sS'efforts'
p1227
F13967.67343847055
sS'retaliate'
p1228
F22164.056016853145
sS'democratic'
p1229
F16170.655691798667
sS'wine'
p1230
F6733.8587690091135
sS'kuroda'
p1231
F5510.256657466137
sS'progressing'
p1232
F5052.253988979674
sS'mission'
p1233
F9180.609318576804
sg58
F777974.5818719824
sg409
F8258.3178806951
sg410
F141661.8567084392
sS'bywater'
p1234
F5510.256657466137
sg671
F5685.903742526584
sS'imbalance'
p1235
F12178.98536703319
sS'violating'
p1236
F10974.414726143292
sS'oki'
p1237
F7345.727123502776
sg975
F6051.765574015753
sS'baldrige'
p1238
F55699.596282287916
sg979
F14417.25287067244
sg980
F14262.900185402801
sg875
F10663.831144446476
sg430
F27912.964366348624
sS'reduce'
p1239
F7813.057840910075
sS'principles'
p1240
F5640.9117049531515
sg726
F5905.167368256682
sS'makoto'
p1241
F5510.256657466137
sg93
F7073.795647947386
sS'tensions'
p1242
F4840.809797243246
sS'semiconductor'
p1243
F80753.47725564841
sS'kyodo'
p1244
F7345.727123502776
sS'curbs'
p1245
F19623.582885301134
sg443
F6296.091305738494
sS'disputes'
p1246
F16170.68392709607
sS'tadashi'
p1247
F5450.918617748773
sS'ministry'
p1248
F10582.619914129493
sS'chirac'
p1249
F6375.764850349314
sS'impose'
p1250
F34199.05860797284
sS'microchips'
p1251
F45832.08957108752
sS'counterpart'
p1252
F4761.696828461904
sS'disturbed'
p1253
F7036.478775529563
sS'businessmen'
p1254
F6398.468685617546
sS'barriers'
p1255
F29500.02209028771
sS'south'
p1256
F16472.668487451683
sS'carney'
p1257
F22006.467528876958
sS'frenzel'
p1258
F5510.256657466137
sS'protectionist'
p1259
F40788.93346331944
sS'open'
p1260
F16190.604794773684
sS'rostenkowski'
p1261
F36626.398635975915
sS'protectionism'
p1262
F24569.852299304224
sS'airbus'
p1263
F5592.814427775052
sS'vetoed'
p1264
F5753.231419462896
sS'engering'
p1265
F5510.256657466137
sS'gradin'
p1266
F5510.256657466137
sS'relations'
p1267
F28465.576214976023
sS'imposing'
p1268
F6733.8587690091135
sS'white'
p1269
F4871.23443808315
sS'penalties'
p1270
F9308.839675795854
sS'unwillingness'
p1271
F4595.349689195056
sS'dawkins'
p1272
F11014.747437718323
sS'widened'
p1273
F11185.327884977763
sS'grey'
p1274
F9514.83029031692
sg839
F14995.79327028299
sS'officials'
p1275
F21341.757735385803
sS'contrasted'
p1276
F4692.660072303578
sS'powers'
p1277
F10953.224519815582
sS'este'
p1278
F12664.736269496385
sg1006
F53305.503495370875
sS'slap'
p1279
F4692.657183167864
sS'need'
p1280
F6200.576106343454
sS'pritchett'
p1281
F5510.256657466137
sS'affairs'
p1282
F10362.540854239483
sS'tough'
p1283
F9610.435181124543
sS'concerns'
p1284
F4582.663089795523
sg862
F8583.433477960936
sS'korean'
p1285
F9923.655432758307
sS'urge'
p1286
F7369.134226019685
sS'sure'
p1287
F6665.906925433551
sg887
F9826.150704317752
sS'react'
p1288
F6447.254498491319
sS'rha'
p1289
F29655.768685344996
sS'statistics'
p1290
F7496.5088292096425
sS'zealand'
p1291
F11895.19420044283
sS'yeutter'
p1292
F71935.44877409792
sS'laws'
p1293
F14290.5815490166
sS'surplus'
p1294
F160407.74981671994
sS'stephens'
p1295
F4761.700699223934
sS'meetings'
p1296
F7052.860444122255
sS'random'
p1297
F4692.657183167864
sS'friction'
p1298
F10456.36794653436
sS'frolov'
p1299
F7345.727123502776
sS'lloyd'
p1300
F4595.349689195056
sS'multilateral'
p1301
F4544.723301059859
sS'brink'
p1302
F7345.727123502776
sS'paemen'
p1303
F5510.256657466137
sS'noir'
p1304
F5510.256657466137
sS'chipmakers'
p1305
F23986.65009349029
sS'rich'
p1306
F4692.379204190949
sS'ruiz'
p1307
F5510.256657466137
sS'dispute'
p1308
F27953.600529355244
sS'jacqueline'
p1309
F11107.073736340535
sg492
F54667.54498123941
sS'means'
p1310
F10401.139637845416
sS'honda'
p1311
F5510.256657466137
sS'stop'
p1312
F13324.965723358788
sS'wallis'
p1313
F8030.225767216148
sS'reporters'
p1314
F7975.622096818038
sS'chips'
p1315
F89030.40705606605
sg103
F12520.870439819559
sg61
F8232.211518729067
sS'resolve'
p1316
F7359.803921935071
sg810
F70866.46099953001
sS'retaliation'
p1317
F77294.2454549095
sg451
F5538.071292740294
sS'racked'
p1318
F5510.256657466137
sS'taiwanese'
p1319
F7574.229204121676
sS'sidetracked'
p1320
F7345.727123502776
sS'computer'
p1321
F8634.521931324094
sg504
F10416.528841801977
sg505
F9917.868061276062
sS'textiles'
p1322
F14311.302481965693
sg89
F6435.394329629121
sS'reform'
p1323
F13879.269001906945
sS'ways'
p1324
F19206.587145229954
sS'tamura'
p1325
F7262.176389466203
sg746
F6104.518081370542
sS'progress'
p1326
F7176.463594618478
sS'europe'
p1327
F5623.409467169935
sS'punta'
p1328
F8688.772676907953
sS'korea'
p1329
F48129.65958426212
sS'clayton'
p1330
F15826.943585286821
sg758
F18815.262204609142
sS'invisible'
p1331
F5854.495632726601
sS'restrictions'
p1332
F9065.931557361555
sS'last'
p1333
F9336.527891426647
sS'missions'
p1334
F8098.55257013385
sS'deficits'
p1335
F9301.89087336875
sg769
F23606.385255989986
sS'figures'
p1336
F6026.806482999287
sg518
F6417.9930373442385
sS'diplomats'
p1337
F7974.358903962626
sS'malcolm'
p1338
F9219.577159699169
sS'community'
p1339
F11571.932492755113
sS'narrowed'
p1340
F10527.543537802365
sS'writing'
p1341
F4851.78495597039
sS'willy'
p1342
F16536.83112560913
sS'howard'
p1343
F5637.337299128398
sS'political'
p1344
F7427.399498031706
sg840
F7065.313078013365
sg835
F7392.800338103185
sS'duties'
p1345
F9530.5289250098
sS'wants'
p1346
F5581.736698677023
sS'lived'
p1347
F4595.359441746641
sS'gap'
p1348
F11029.367998811726
sS'ryzhkov'
p1349
F7345.727123502776
sS'external'
p1350
F5089.605914305177
sg770
F16485.88893941949
sS'commerce'
p1351
F8001.206213959886
sS'bipartisan'
p1352
F5510.256657466137
sS'developing'
p1353
F16492.81051813273
sg540
F33782.66606194422
sg216
F14219.509476089106
sS'economies'
p1354
F6156.694568763056
sg842
F5498.575703171498
sS'balance'
p1355
F7091.444534957109
sS'existence'
p1356
F4595.359441746641
sS'taupo'
p1357
F34895.71959991024
sS'anger'
p1358
F10609.858298272426
sS'woong'
p1359
F5510.256657466137
sg408
F5015.977466976959
sS'neyra'
p1360
F9180.557271916516
sS'textile'
p1361
F24888.082740542814
sS'angered'
p1362
F6426.7130559012485
sS'conflict'
p1363
F4860.651281383214
sg704
F4918.508113381305
sS'premiers'
p1364
F5510.256657466137
sS'complained'
p1365
F5027.5032698906625
sS'practices'
p1366
F44204.48028196544
sS'solve'
p1367
F9156.068462840893
sS'congressmen'
p1368
F5425.730368684485
sS'domestic'
p1369
F9797.65903444157
sS'unfair'
p1370
F51010.57922587237
sS'ldp'
p1371
F14681.209160361894
sS'polish'
p1372
F7515.047400531917
sg653
F26102.45014788617
sS'yamamoto'
p1373
F5753.231419462896
sg658
F6190.807202741376
sS'informal'
p1374
F20647.222074788682
sS'murakhovsky'
p1375
F7521.84904335315
sS'copyrights'
p1376
F4692.657183167864
sS'potash'
p1377
F16513.481386058094
sS'violations'
p1378
F5637.393342474403
sS'smart'
p1379
F5450.918617748773
sS'complains'
p1380
F4692.657183167864
sg682
F7237.45388511206
sS'clercq'
p1381
F34825.38951457763
sS'gephardt'
p1382
F29321.523587686566
sS'conable'
p1383
F15731.3675708638
sS'armacost'
p1384
F5510.256657466137
sS'world'
p1385
F16550.7099159431
sS'correcting'
p1386
F8671.320119821165
sg60
F11383.341146785835
sS'imposed'
p1387
F5125.37545961909
sS'electronic'
p1388
F23707.856420039512
sS'consensus'
p1389
F7904.410725584408
sS'warned'
p1390
F5663.516806596166
sg591
F20885.505463147114
sS'urgent'
p1391
F10892.08205257064
sg725
F28412.134122855598
sS'kilobit'
p1392
F5510.256657466137
sS'matsunaga'
p1393
F9180.557271916516
sg745
F164816.87675459075
sS'slash'
p1394
F8780.875734296318
sS'kirkland'
p1395
F5753.231419462896
sg110
F5703.517233840181
sS'agreement'
p1396
F12693.815251708711
sg845
F4460.683211779165
sg118
F6618.819670668558
sS'miti'
p1397
F34411.01812593199
sS'abroad'
p1398
F4926.980852032662
sS'wonnacott'
p1399
F9180.557271916516
sS'goods'
p1400
F62167.91357942231
sS'industry'
p1401
F10538.284243324011
sS'wolf'
p1402
F6337.994708729213
sS'tariffs'
p1403
F138174.5983496024
sg612
F21812.86666450972
sg1042
F15202.734772155074
sS'comecon'
p1404
F12038.951217230047
sS'accused'
p1405
F8524.796505949787
sS'legislation'
p1406
F31814.610983051414
sS'alleged'
p1407
F13779.432996243844
sS'way'
p1408
F7952.177225735378
sS'dumping'
p1409
F39675.28248094618
sS'keating'
p1410
F8488.85975110988
sS'war'
p1411
F31006.410986798397
sS'widens'
p1412
F4761.700699223934
sS'failure'
p1413
F7239.308129527608
sS'promote'
p1414
F4484.530723269062
sg836
F11218.691855719604
sg641
F11753.724540990395
sS'convince'
p1415
F5431.272414337849
sS'problem'
p1416
F10911.699907779797
sS'retaliatory'
p1417
F24094.950213860302
sS'called'
p1418
F5929.921726958907
sS'liberal'
p1419
F5152.2294833477445
sS'moore'
p1420
F7241.154658906085
sS'axworthy'
p1421
F5510.256657466137
sS'moves'
p1422
F4523.9515836034925
sS'negotiations'
p1423
F11414.258922605966
sg255
F10882.50934096647
sS'diplomat'
p1424
F6437.941483413871
sS'lopsided'
p1425
F9180.557271916516
sS'nics'
p1426
F11014.747437718323
sS'zhao'
p1427
F5510.256657466137
sS'congress'
p1428
F23763.55457117775
sS'kansai'
p1429
F7262.188926177137
sS'important'
p1430
F4724.42623664729
sS'dram'
p1431
F7345.727123502776
sS'sides'
p1432
F6632.428720117816
sS'fendt'
p1433
F18345.114966851652
sg297
F73656.00615340675
sS'bilateral'
p1434
F49284.65430033823
sg904
F7901.42493012855
sS'fso'
p1435
F5753.231419462896
sg315
F12237.425655066361
sS'sounded'
p1436
F4692.657183167864
sS'minister'
p1437
F16821.25458019271
ssVacq
p1438
(dp1439
S'affiliated'
p1440
F17802.711863741708
sS'sells'
p1441
F30330.282447545003
sS'unsolicited'
p1442
F23434.424106740964
sS'holds'
p1443
F44994.034817548956
sg5
F19302.63314333186
sS'carl'
p1444
F14796.69597778277
sS'proposed'
p1445
F43820.64048485526
sS'gates'
p1446
F19356.99928552095
sS'telecom'
p1447
F20729.77189308337
sS'consent'
p1448
F20418.630815127657
sg645
F76568.19314951012
sg221
F20243.777683157372
sS'alternatives'
p1449
F24606.971828603808
sS'held'
p1450
F33508.5006283969
sg127
F29302.11017446298
sS'gaf'
p1451
F28128.27680494541
sS'rexnord'
p1452
F23526.51352770047
sS'gabelli'
p1453
F18435.22361823686
sS'lindner'
p1454
F18435.22361823686
sg22
F35164.51412952022
sg1182
F41958.46508769012
sS'jacobs'
p1455
F17314.76779509533
sg26
F246061.1821635253
sS'boliden'
p1456
F16273.72660278992
sS'tire'
p1457
F40957.0165606839
sS'application'
p1458
F28507.811474132777
sS'merger'
p1459
F454139.0143628609
sS'banner'
p1460
F15565.74223569449
sS'renouf'
p1461
F17412.79297626897
sS'caesars'
p1462
F67327.36107742104
sS'mannesmann'
p1463
F18537.203594602393
sS'southmark'
p1464
F16390.156965085058
sg153
F27106.427561917262
sS'nippon'
p1465
F21722.53551938748
sS'interested'
p1466
F22101.802582288907
sg36
F76745.37219764374
sS'equity'
p1467
F16494.552176338435
sS'edelman'
p1468
F20376.354817910596
sS'merged'
p1469
F28380.043313269824
sS'division'
p1470
F60458.7876634199
sS'bil'
p1471
F21501.28394730219
sS'executive'
p1472
F15162.728527046404
sg44
F44754.94565702795
sS'definitive'
p1473
F69580.35946139999
sS'seeking'
p1474
F22307.60412460361
sS'analysts'
p1475
F17039.707811521403
sS'wagner'
p1476
F18214.140914151438
sS'bid'
p1477
F157288.86764510782
sS'express'
p1478
F67351.90977653183
sS'undisclosed'
p1479
F113226.02205680995
sS'financing'
p1480
F16758.046706276535
sg51
F18965.733301290235
sS'dart'
p1481
F42833.08239136053
sS'siemens'
p1482
F26783.52666181694
sS'made'
p1483
F19832.206597348923
sS'aerospace'
p1484
F20570.109913561384
sS'purolator'
p1485
F112632.08821658664
sS'buyout'
p1486
F89395.72203864888
sS'investor'
p1487
F87478.71901248577
sg61
F14734.765036612695
sS'subsidiaries'
p1488
F18682.873448691298
sS'progressive'
p1489
F32055.042155663126
sS'cable'
p1490
F44273.38910104612
sS'resorts'
p1491
F26519.566121242737
sS'associates'
p1492
F15845.809952569474
sg104
F14646.70123684758
sS'hotel'
p1493
F17866.870056779113
sS'companies'
p1494
F59361.925110727774
sg587
F35139.07046090282
sS'merge'
p1495
F50460.028598121105
sS'affiliate'
p1496
F18830.162020599262
sg68
F198293.95706616246
sS'mts'
p1497
F20479.469041932527
sg70
F32407.307240677557
sS'baird'
p1498
F26467.679083749917
sS'csr'
p1499
F25526.59064810844
sS'shareholder'
p1500
F76372.44914764617
sS'calny'
p1501
F16390.156965085058
sS'qintex'
p1502
F15280.547295122147
sS'deak'
p1503
F15367.315522802071
sS'bancroft'
p1504
F15303.859083361594
sS'taft'
p1505
F117354.47092297947
sS'cyacq'
p1506
F51044.938226075945
sS'deal'
p1507
F45570.5047507726
sS'acquired'
p1508
F163186.50850985645
sS'schlumberger'
p1509
F20528.483345586043
sS'pacific'
p1510
F40831.02767868532
sS'operates'
p1511
F24454.205117643836
sS'vote'
p1512
F16435.796317186185
sg1321
F25861.079055779235
sS'sec'
p1513
F25721.670494700582
sS'signed'
p1514
F27976.17532288732
sS'complete'
p1515
F17648.408092059584
sg506
F90791.28194432464
sS'transportation'
p1516
F18616.98725708112
sS'based'
p1517
F15612.244045175998
sS'redstone'
p1518
F31708.161476771897
sg87
F78432.30426818582
sS'aviation'
p1519
F21090.11190875199
sS'acquires'
p1520
F48764.15037657255
sS'minstar'
p1521
F17318.483928825022
sS'princeville'
p1522
F17802.72894785714
sg89
F163757.66294424137
sS'receipt'
p1523
F14973.0384526625
sg92
F20146.083744344567
sS'icc'
p1524
F15367.315522802071
sS'leveraged'
p1525
F17844.01296606733
sS'equipment'
p1526
F22938.928603278822
sS'dudley'
p1527
F20479.469041932527
sg17
F680577.1389465265
sS'wholly'
p1528
F27226.52755429838
sS'spokesman'
p1529
F20489.27102860781
sS'video'
p1530
F16849.84566767319
sS'miguel'
p1531
F18214.041871560883
sg102
F30019.636973701872
sg103
F14817.063712914427
sS'hotels'
p1532
F14973.076675409224
sS'smc'
p1533
F20479.469041932527
sS'announced'
p1534
F28676.65377898687
sg749
F30822.4656251555
sS'completion'
p1535
F27291.596558616297
sS'terms'
p1536
F68664.80945700996
sS'bass'
p1537
F34376.80289996059
sg91
F45949.98132608925
sS'approvals'
p1538
F16333.129886016639
sS'sold'
p1539
F36098.607430997305
sg1396
F57051.0381950223
sS'gardner'
p1540
F16390.156965085058
sS'dome'
p1541
F22577.27927884245
sS'pratt'
p1542
F17318.483928825022
sS'takeover'
p1543
F185283.23102579307
sg16
F51413.56794062144
sg119
F37416.307449206695
sg1112
F18940.110851156118
sS'fleet'
p1544
F23279.65565315896
sS'regulatory'
p1545
F27214.610555013667
sS'approval'
p1546
F86174.165623183
sS'norcros'
p1547
F24565.498178828686
sS'security'
p1548
F22402.31850606101
sS'manufacturer'
p1549
F23769.845055908827
sg126
F79180.33373484573
sS'acquiring'
p1550
F30870.415482385717
sS'dixons'
p1551
F116352.38507472517
sS'renault'
p1552
F24467.72365621181
sg215
F22847.893759416136
sS'receive'
p1553
F23550.457822451648
sS'conrac'
p1554
F29496.28279441536
sS'cgct'
p1555
F26607.282879973598
sg1050
F33342.75501998226
sg138
F18465.35442358644
sS'justice'
p1556
F20380.218968055884
sg304
F74785.728297198
sS'amc'
p1557
F42745.95123834363
sS'chrysler'
p1558
F40750.48004477027
sg143
F67780.54182257055
sS'comdata'
p1559
F44946.537854653754
sg118
F225097.01810679238
sS'makes'
p1560
F31380.8862948654
sS'maker'
p1561
F30780.18683178721
sS'block'
p1562
F15077.403338066133
sg777
F29197.216143528014
sS'already'
p1563
F14876.187541279
sS'co'
p1564
F29769.20782856169
sS'ownership'
p1565
F29922.720820004233
sS'family'
p1566
F24529.68057910518
sS'wall'
p1567
F28174.366820039948
sS'advisor'
p1568
F14580.597681190931
sS'owned'
p1569
F74301.06221877613
sS'received'
p1570
F19075.08764399567
sS'tendered'
p1571
F50143.66817365719
sS'guinness'
p1572
F14795.413094654348
sS'general'
p1573
F23900.399623673038
sS'sgl'
p1574
F20479.469041932527
sS'brokerage'
p1575
F23037.40948003936
sS'speculated'
p1576
F20292.43835529146
sg163
F33607.56087742104
sS'pending'
p1577
F16347.195183697839
sg246
F141544.04403040512
sg234
F15453.363039594999
sS'rival'
p1578
F19046.639070268742
sS'terminated'
p1579
F29912.132478791973
sg170
F208909.7324063623
sS'twa'
p1580
F136658.68798185358
sS'champion'
p1581
F15046.609376699196
sg799
F33233.99237282868
sg180
F17793.544901902842
sS'holdings'
p1582
F58770.629683080944
sS'takeovers'
p1583
F21869.726128943275
sS'airlines'
p1584
F41925.74553168414
sS'husky'
p1585
F16299.41413501061
sS'approved'
p1586
F17431.761338226985
sS'hutton'
p1587
F70241.13832767736
sS'commission'
p1588
F34390.70422820045
sS'airline'
p1589
F19517.139360107685
sS'statement'
p1590
F21382.55805575366
sS'suit'
p1591
F19226.08314846087
sS'formed'
p1592
F23124.897944761182
sS'waste'
p1593
F36192.111723524395
sS'piedmont'
p1594
F94960.19912754413
sS'symbion'
p1595
F18435.22361823686
sg191
F90644.8044275402
sS'firm'
p1596
F85372.20378321393
sS'rospatch'
p1597
F17318.483928825022
sS'buy'
p1598
F157373.9187633517
sS'controlled'
p1599
F26098.178855903112
sS'chemlawn'
p1600
F67222.97014715565
sS'courier'
p1601
F69038.87271160044
sg623
F410730.88622946554
sS'completed'
p1602
F92352.57000374698
sS'acquire'
p1603
F293972.8535752208
sS'part'
p1604
F20150.24505351022
sS'reed'
p1605
F17802.660609956252
sS'retained'
p1606
F18335.88473451712
sS'corning'
p1607
F17726.37920798604
sS'delta'
p1608
F15620.529618157785
sg228
F102493.36111609866
sS'conditioned'
p1609
F26783.52666181694
sS'completes'
p1610
F83894.29516027545
sS'hostile'
p1611
F25432.151211719793
sS'majority'
p1612
F26121.05119750719
sS'hughes'
p1613
F52947.581506872244
sS'valued'
p1614
F22796.76384725983
sS'fairchild'
p1615
F39122.85204954514
sS'rights'
p1616
F40881.72011543965
sS'klm'
p1617
F30688.395014545666
sg217
F87907.95900025038
sS'disclosed'
p1618
F80274.35861191254
sS'air'
p1619
F39345.702360654665
sS'street'
p1620
F24323.951733531885
sS'cyclops'
p1621
F175458.7368069404
sS'pizza'
p1622
F20418.616817978404
sS'venture'
p1623
F26538.855427908813
sS'owns'
p1624
F71001.27432321128
sS'viacom'
p1625
F55981.79438322266
sS'closing'
p1626
F31025.537576683295
sS'trans'
p1627
F22415.09286069935
sS'acquisition'
p1628
F378809.3717952821
sS'control'
p1629
F88327.32026627958
sS'interests'
p1630
F22965.321509647674
sS'trump'
p1631
F20637.997366335825
sS'outstanding'
p1632
F117279.78149790324
sS'certain'
p1633
F26457.088238308526
sS'partnership'
p1634
F39648.46860256323
sg240
F152372.4432274448
sS'emery'
p1635
F43929.42517251435
sg245
F30087.130303394682
sS'divest'
p1636
F16746.507534423068
sS'right'
p1637
F15964.378222176794
sS'rumors'
p1638
F15787.525153009363
sS'pesch'
p1639
F36803.927435906764
sS'allegheny'
p1640
F68898.72981626136
sS'seek'
p1641
F25557.339014147892
sS'shearson'
p1642
F39606.00214640062
sS'lbo'
p1643
F23544.29845400375
sg255
F324055.47354822286
sS'sell'
p1644
F145460.28282622865
sS'rainbow'
p1645
F28648.248327551995
sS'court'
p1646
F34921.803674825256
sS'usair'
p1647
F232962.88694276122
sS'harper'
p1648
F47920.75055563505
sS'technology'
p1649
F19965.276993912048
sS'stake'
p1650
F463824.0987097311
sS'savings'
p1651
F36410.08228820977
sS'owner'
p1652
F15041.209898151057
sg264
F20459.846789304123
sg211
F31972.717905843674
sg29
F14565.747641926582
sS'fujitsu'
p1653
F26901.24911813743
sS'honeywell'
p1654
F17314.825387563607
sg64
F40432.95446327464
sS'holding'
p1655
F54763.56935611882
sS'buys'
p1656
F45276.84609192781
sS'ordinary'
p1657
F16352.576178647461
sS'subject'
p1658
F86178.50688933616
sg196
F375456.7356181468
sg276
F168171.27117089377
sS'sosnoff'
p1659
F56826.370496454634
sS'plans'
p1660
F24155.7754530987
sS'affiliates'
p1661
F16225.363703929723
sS'information'
p1662
F20284.711060891543
sS'southern'
p1663
F15762.113124673215
sS'gencorp'
p1664
F142376.03753854643
sS'norstar'
p1665
F33545.57796496219
sS'heyman'
p1666
F15367.315522802071
sS'afg'
p1667
F18940.026324953626
sS'icahn'
p1668
F38711.70284051141
sS'boards'
p1669
F19694.226128277885
sS'intent'
p1670
F70430.46883402503
sS'plan'
p1671
F15609.823157530245
sS'letter'
p1672
F67561.38700735019
sg315
F24744.395072460815
sg292
F21947.706078324518
sS'hanson'
p1673
F31527.400596361647
sS'tmoc'
p1674
F15826.987051146614
sg294
F18479.433062934735
sS'rmj'
p1675
F15280.547295122147
sg199
F16653.482403870425
sS'purchase'
p1676
F130966.35957760789
sS'transaction'
p1677
F161254.08291241823
sg300
F103116.2159970454
sS'medical'
p1678
F23828.63881507523
sS'cpc'
p1679
F30616.317883364845
sg307
F153485.44881301207
sS'supermarkets'
p1680
F41725.15130395486
sS'directors'
p1681
F77268.68680716866
sS'broadcasting'
p1682
F31795.18668156836
sS'cenergy'
p1683
F18409.216543394934
sS'principle'
p1684
F38612.99192939291
sS'management'
p1685
F87760.5166177147
sS'harcourt'
p1686
F16273.72660278992
sS'voting'
p1687
F48635.8851828547
sS'amusements'
p1688
F18435.22361823686
sS'filing'
p1689
F84426.22412020255
sS'dot'
p1690
F25644.986790537176
sS'proposal'
p1691
F21122.679965029532
ssVgrain
p1692
(dp1693
S'alfalfa'
p1694
F7852.698735532866
sS'load'
p1695
F6291.954848976601
sS'growmark'
p1696
F14190.263183900459
sg323
F7849.4897897622395
sS'insects'
p1697
F11774.66764658554
sg1139
F6990.712464283544
sS'dissolution'
p1698
F11882.530702860031
sg324
F5300.32066389349
sg322
F8002.206778879895
sg565
F4723.798378241073
sg395
F6277.067745669154
sg326
F4364.608030071587
sg1088
F8024.440512569367
sg519
F3622.467724101086
sg994
F3622.4709216416127
sg1018
F18625.25244812383
sg1019
F5918.066325441868
sS'cooperative'
p1699
F10056.774790415884
sg505
F12474.762872418558
sg486
F36833.83066482721
sS'northern'
p1700
F4382.741883936782
sg497
F3459.553545982383
sg583
F6383.202516475826
sS'loading'
p1701
F9624.29475651798
sg1021
F8078.857424909853
sg331
F7749.835407972217
sS'sparks'
p1702
F7542.887342757352
sg409
F4684.054333360575
sg563
F4058.6345905433395
sS'ships'
p1703
F4238.723473847769
sg352
F5493.726245398811
sg413
F3567.413500222537
sg414
F31854.69767436502
sg361
F5889.392247496423
sg415
F11547.192495381967
sg332
F42586.684446278654
sg416
F5597.186254186431
sS'association'
p1704
F4527.040757000569
sg417
F5872.504577344247
sg424
F4229.793148316022
sg490
F36157.54494192139
sS'peavey'
p1705
F5431.596277983876
sS'sladoje'
p1706
F5890.619777054608
sg977
F4911.795670371636
sg492
F3390.2655176858843
sg493
F20076.320162054148
sS'food'
p1707
F7544.792686856736
sg421
F14323.740595125339
sg422
F3610.3250723391784
sg334
F25142.350613336133
sg924
F3411.3582255598717
sg1007
F5458.8931069718
sg1119
F3572.674561291798
sS'patronage'
p1708
F3927.8106068314746
sS'seaway'
p1709
F7442.2237838543915
sg582
F6303.358597680845
sg354
F3794.3425851137204
sg1031
F5670.400798160994
sS'cavanaugh'
p1710
F3927.8106068314746
sg337
F8926.141935113516
sg1096
F5555.813722003985
sS'multiyear'
p1711
F6158.76931377783
sg423
F13289.738409906473
sg495
F16823.110459810418
sS'rotterdam'
p1712
F4886.189806402065
sg60
F11144.612080730794
sg61
F7700.844572593603
sg972
F3901.8358549526083
sS'lugar'
p1713
F4225.4767570345
sg338
F37915.47623080282
sS'roll'
p1714
F3575.8779549252185
sg385
F5555.807033179617
sS'midamerica'
p1715
F6158.76931377783
sg586
F27096.519078470905
sS'summary'
p1716
F4983.8955805957985
sg587
F4155.30562412941
sS'peking'
p1717
F3954.1724625886636
sg427
F26496.787425915278
sg442
F3808.97819266294
sS'destroying'
p1718
F3927.8106068314746
sg498
F4535.6449673140205
sg573
F3509.674812571812
sg276
F6110.348208190185
sg588
F17121.015876662634
sg1067
F5429.325747479046
sg475
F7066.312165799434
sg975
F3881.7998373296086
sg836
F7900.717439826544
sg77
F4815.651934848128
sg503
F12609.470167683969
sg591
F7025.470502460195
sg592
F13757.065910208627
sS'kampuchea'
p1719
F3622.4709216416127
sg998
F5566.269514080784
sg1224
F4887.14271840727
sg343
F77105.11368291394
sg432
F16887.240943158908
sg433
F16296.758279901645
sg345
F3600.7237504155155
sg928
F20059.758284266547
sg593
F35796.84871765097
sg346
F27568.585298830272
sg1044
F6006.855439904766
sS'portland'
p1720
F8490.495500821713
sS'estimated'
p1721
F4227.314448486468
sg435
F87093.99619170313
sg411
F11400.988877056625
sS'financials'
p1722
F3927.8106068314746
sS'zorinsky'
p1723
F4302.467828801551
sg349
F4398.229345436404
sS'merchants'
p1724
F4008.82079808524
sg942
F3755.1905769929494
sS'explodes'
p1725
F3927.8106068314746
sg406
F5945.561308778549
sg351
F4284.2160700991
sg507
F57992.097066783426
sg93
F6597.674573331741
sg99
F3596.850478104962
sg437
F5238.883827798236
sg508
F3622.4709216416127
sg426
F3622.4709216416127
sg17
F6303.247058547356
sg399
F43253.93819623131
sg512
F5949.2728395961185
sg439
F45915.483524823416
sg513
F13591.453950752188
sg931
F31997.004400407535
sg542
F4550.926601034776
sg103
F12434.678942816767
sg1055
F3508.776046883039
sg430
F3795.843428545029
sg599
F26745.01035762419
sS'payments'
p1726
F3673.2205923936867
sg355
F7195.103973410372
sS'forfeitures'
p1727
F4302.467828801551
sg110
F364515.0474473878
sS'coceral'
p1728
F3927.8106068314746
sS'derivatives'
p1729
F3661.8148399280035
sg357
F4553.1749997809
sg1107
F4239.672081309627
sg602
F201130.72202663575
sS'reseeded'
p1730
F7852.698735532866
sg627
F4013.0577632226737
sg358
F9656.954565864457
sS'hss'
p1731
F4527.213274735199
sS'arable'
p1732
F7542.887342757352
sg360
F23255.15652598696
sg119
F5109.57714011281
sS'provinces'
p1733
F3439.7891167080506
sg446
F7239.342557166266
sg459
F8544.223933069803
sS'demise'
p1734
F5890.619777054608
sg515
F7418.319952893956
sS'dispatcher'
p1735
F3927.8106068314746
sg620
F4057.688628463979
sg362
F15700.247101534114
sg1024
F14827.583102145387
sS'mulligan'
p1736
F11774.66764658554
sg1334
F5035.359259267884
sg447
F3477.9457946976813
sg215
F14017.395136666828
sS'pravda'
p1737
F3927.8106068314746
sS'grasses'
p1738
F7852.698735532866
sg364
F4966.767748608811
sg608
F5525.864978260048
sg609
F6650.947633876277
sg440
F9830.18631121572
sg1051
F4949.319707167241
sg516
F284671.18181338825
sg366
F8067.364168224242
sg143
F4764.581963410508
sg118
F6617.159302744137
sS'changes'
p1739
F3635.429011797721
sS'malt'
p1740
F4945.253999129288
sg987
F14504.552817841344
sg452
F25838.037358251637
sS'shanghai'
p1741
F3429.285939238442
sg453
F90825.91330504343
sg390
F4188.3132625319795
sg369
F7299.120883464753
sg1042
F3551.2675815024454
sg612
F20520.111073957036
sS'destrehan'
p1742
F3622.4709216416127
sg940
F4951.266280919846
sg828
F4607.137719522002
sg614
F26825.934014292652
sg521
F4973.925818213067
sg944
F14585.1658101439
sg941
F4529.582572584665
sg991
F5157.873138129002
sg429
F3826.8931622255564
sS'renovating'
p1743
F3927.8106068314746
sg616
F3661.8328221726274
sg456
F4200.3453798914325
sS'het'
p1744
F13734.55841306808
sg618
F80777.64277378778
sS'use'
p1745
F3579.2492057849176
sg457
F3661.7968569512764
sg448
F4527.213274735199
sS'certificate'
p1746
F15065.161033183222
sg1120
F9855.255463222838
sg528
F17399.58725140875
sg993
F3919.679944217532
sS'daniels'
p1747
F5113.270346054948
sS'elevator'
p1748
F21770.70678785045
sg621
F3919.639934014904
sg529
F30951.524878288656
sS'elevators'
p1749
F3661.8088456837745
sg1122
F20940.671462465714
sg601
F5654.341012092583
sg530
F10198.06229665963
sg372
F18189.411103049937
sg1059
F5248.011655052407
sg373
F16018.767296396112
sg1020
F7204.58531250564
sS'farming'
p1750
F3429.208659892964
sg196
F8606.643441251214
sS'hanes'
p1751
F3927.8106068314746
sg425
F4606.677033324511
sg376
F9002.588555406923
sg461
F10198.010951720387
sg534
F3881.8437178160834
sg126
F5614.585846652512
sg464
F17825.570934059688
sg465
F24539.875262749236
sg999
F7272.5589978084345
sg1063
F20392.24029077688
sS'legumes'
p1752
F7852.698735532866
sg985
F7313.269690714111
sg1102
F12587.074399265533
sg468
F8067.3478506979
sS'prices'
p1753
F5151.901566261162
sg951
F18795.973027774024
sS'jinfeng'
p1754
F3927.8106068314746
sS'renovate'
p1755
F3927.8106068314746
sg383
F15721.6720596782
sS'infestations'
p1756
F3927.8106068314746
sS'adm'
p1757
F5113.274222185234
sg539
F30756.860243303923
sg1001
F7203.970700364028
sg625
F42072.72298424574
sg995
F5232.718022950362
sS'klopfenstein'
p1758
F6335.632116541657
sg540
F15352.58672810903
sg626
F4927.035680840362
sg469
F6362.291098034373
sg1129
F4813.720944877165
sS'archer'
p1759
F4048.2501551545156
sg386
F14132.123760011258
sg449
F5030.505053252359
sg541
F6122.368349704362
sg531
F3474.356154112221
sS'comite'
p1760
F13734.55841306808
sg1070
F15371.715968649427
sS'minus'
p1761
F7081.647520253628
sg955
F4736.756439025726
sg629
F21514.36845261982
sg1131
F10839.032568865354
sg543
F17591.55602174408
sg471
F4214.4822090604885
sg996
F7743.9253620527825
sg1006
F5426.67296873031
sg391
F6550.4171273471065
sg240
F5131.590192725959
sg598
F9256.837440979712
sS'sample'
p1762
F5846.617210605048
sg632
F13488.918695095126
sg1039
F5247.95386799754
sS'dryness'
p1763
F4302.467828801551
sg584
F3459.553545982383
sg255
F7991.778954527075
sg1003
F5431.6010730934995
sg633
F17207.91602244356
sS'carloadings'
p1764
F7852.698735532866
sg527
F4900.355342297138
sg1137
F8011.453161430405
sg394
F60979.82590471049
sg974
F4514.126128333442
sS'floor'
p1765
F3881.7197345509426
sg1138
F14985.619082091289
sg348
F19048.575456531216
sg491
F3991.245911909081
sg408
F7710.85772525476
sg473
F8528.974265532186
sg393
F3466.323294248758
sg960
F7853.368364767708
sg634
F35512.263035743235
sg273
F4752.445023932418
sS'brunthaver'
p1766
F3927.8106068314746
sg397
F3622.4709216416127
sg1008
F10404.816284523817
sS'paddy'
p1767
F13046.292003250526
sg590
F11302.320307969376
sg545
F3532.0254659666207
sg963
F6008.335652308052
sg549
F5706.531831010605
sg476
F14999.514468043055
sS'normal'
p1768
F4713.259548720038
sg550
F30034.76601413711
sg635
F10409.498114346654
sS'rain'
p1769
F5889.341437558476
sg1082
F5495.338459573524
sg1083
F15037.30199608881
sg72
F4024.885766081065
sg1011
F7853.368364767708
sg1144
F4127.916972609207
sS'ukraine'
p1770
F3622.4613288864293
sS'discharge'
p1771
F3883.6170332802344
sg479
F16459.879708405493
sg402
F4249.174720205633
sg480
F14456.337927029414
sg551
F3536.174730246596
sg297
F8380.318509664174
sg1126
F8868.378596179102
sg1117
F3459.5595535803445
sg1146
F13591.918421467446
sg403
F19895.338711016848
sS'programs'
p1772
F5495.221466785118
sS'cooperatives'
p1773
F9447.577753364734
sS'midam'
p1774
F6158.76931377783
sS'fengbang'
p1775
F3927.8106068314746
sS'futures'
p1776
F7432.476581570764
sg483
F8798.048670021339
sg404
F8347.879057266882
sg1073
F9929.325201922535
sg381
F4550.892220596264
sg1079
F5712.32430877023
sg560
F7643.794444655152
sS'compounders'
p1777
F4302.467828801551
sg1147
F4385.844791871763
sS'tonner'
p1778
F7239.342557166266
sg315
F173612.96061141943
sg637
F3745.137789928091
sg407
F4767.430011795223
sg482
F84677.52254512419
sg484
F21000.704914104197
sS'snowcover'
p1779
F5890.619777054608
ssVinterest
p1780
(dp1781
S'cherrin'
p1782
F4587.053109890435
sS'follow'
p1783
F8502.155667523137
sS'karnosky'
p1784
F7182.956654518295
sS'uncoupling'
p1785
F5543.9898582297965
sS'schulmann'
p1786
F8313.825352188282
sS'thursday'
p1787
F3260.1090425436328
sS'majendie'
p1788
F2772.7151148590174
sg669
F11053.073764046114
sg37
F3856.1734703525676
sg873
F6577.492673230444
sS'stocked'
p1789
F5235.49413317837
sS'lloyds'
p1790
F5554.177624562777
sS'temperton'
p1791
F5543.9898582297965
sg683
F2863.0645902846804
sg686
F3243.073193470711
sS'spate'
p1792
F2772.7151148590174
sS'witter'
p1793
F2577.296356023932
sS'schade'
p1794
F4114.300003377235
sS'tomrorow'
p1795
F2772.7151148590174
sS'arrange'
p1796
F7937.928165513241
sS'materialize'
p1797
F4804.029934513109
sS'fhl'
p1798
F3593.3701342711147
sS'pooled'
p1799
F2772.7151148590174
sS'materialises'
p1800
F2772.7151148590174
sS'wednesday'
p1801
F5784.185563792377
sS'depositors'
p1802
F3302.309519425224
sS'mamman'
p1803
F2739.047671817551
sS'dir'
p1804
F5543.9898582297965
sS'dealing'
p1805
F3251.6455468311096
sg723
F15341.438131221143
sS'likely'
p1806
F6753.894219904802
sS'compensates'
p1807
F2772.7151148590174
sS'borrowings'
p1808
F4314.3592823170075
sS'oda'
p1809
F2772.7151148590174
sS'herrhausen'
p1810
F3674.412526144869
sS'primes'
p1811
F5543.9898582297965
sS'schlesinger'
p1812
F2772.7151148590174
sS'adds'
p1813
F9328.519236134178
sg737
F38464.25621378587
sg17
F4858.817955629594
sg103
F7798.840245928932
sS'nicho'
p1814
F2619.1449881233043
sS'drew'
p1815
F6606.311425957625
sS'expiry'
p1816
F4804.029934513109
sg215
F12065.027274859307
sS'leaves'
p1817
F5802.9873557449455
sS'adjusts'
p1818
F4804.032209563444
sS'credit'
p1819
F2692.8015764738984
sg1475
F5419.886240167303
sg118
F4037.5938157693167
sS'influx'
p1820
F3302.309519425224
sg815
F13945.029232644933
sS'tightness'
p1821
F4114.3174246855315
sS'lending'
p1822
F57840.7020736758
sg793
F62052.39313991621
sg795
F129929.29478851326
sS'remains'
p1823
F2673.9778099109044
sS'confounded'
p1824
F2772.7151148590174
sg1200
F4023.7248104149535
sg809
F13174.63525724869
sg811
F4922.141664603334
sg813
F19764.72969337965
sS'lowering'
p1825
F7079.573944711859
sS'multilaterals'
p1826
F2772.7151148590174
sg869
F4905.2315871078845
sg196
F7377.718503509587
sS'mismatch'
p1827
F2772.7151148590174
sS'hockin'
p1828
F16614.70754088068
sS'iif'
p1829
F2772.7151148590174
sS'arranging'
p1830
F2867.358009682949
sS'emphasising'
p1831
F2772.7151148590174
sg829
F58183.05727637055
sS'stabilized'
p1832
F3095.9869879352323
sS'room'
p1833
F5566.839352806635
sS'averaged'
p1834
F7298.539314979147
sS'rediscount'
p1835
F4804.029934513109
sS'carroll'
p1836
F3292.3527673248755
sS'rotberg'
p1837
F11082.222717645232
sg860
F16264.790437760686
sS'horst'
p1838
F2772.7151148590174
sS'chia'
p1839
F5543.9898582297965
sS'mmcs'
p1840
F8313.825352188282
sg867
F6285.062955592483
sS'spreads'
p1841
F6274.472015165843
sS'iggi'
p1842
F2619.1449881233043
sS'symposium'
p1843
F2994.2553196926574
sg273
F3367.193231834576
sS'explains'
p1844
F2619.1433760556984
sg875
F4287.912346301695
sS'klauhs'
p1845
F2772.7151148590174
sS'dampened'
p1846
F2772.7151148590174
sS'highs'
p1847
F2983.3320585018005
sS'comerica'
p1848
F3593.3701342711147
sg804
F2636.4058117362338
sS'gros'
p1849
F2571.026525673143
sS'data'
p1850
F4717.372042567577
sS'effective'
p1851
F21577.984884488837
sS'borrowing'
p1852
F19558.341934946817
sg912
F9452.146364585551
sS'simmonds'
p1853
F7182.956654518295
sS'deposit'
p1854
F5871.61501173694
sg406
F47002.28654766502
sS'reiners'
p1855
F4804.032209563444
sg642
F8951.146732323356
sS'move'
p1856
F22116.83190619216
sS'raised'
p1857
F6257.187256417502
sg58
F2987.9939520723956
sS'barclays'
p1858
F7637.464808968346
sg650
F4695.733524920624
sS'looks'
p1859
F2739.4452424701485
sS'cuts'
p1860
F26455.25969182397
sS'kommerzialbank'
p1861
F2772.7151148590174
sS'fhlbb'
p1862
F7175.939526004711
sg413
F56222.284618617894
sS'clashes'
p1863
F2772.7151148590174
sS'window'
p1864
F5147.267784137616
sS'liro'
p1865
F8644.942714017108
sg671
F9037.941028648222
sS'lacey'
p1866
F3593.3701342711147
sS'matches'
p1867
F7182.953755365886
sg688
F72374.22434145032
sS'cutting'
p1868
F13510.547553478093
sS'geert'
p1869
F3302.309519425224
sg56
F4138.678028044188
sg423
F122352.92584605857
sS'term'
p1870
F2778.298810470961
sg702
F3038.2127474277727
sS'kern'
p1871
F3927.668768575434
sS'brusca'
p1872
F7079.670812628412
sg711
F24770.060469607153
sg713
F46385.5544670987
sS'upheavals'
p1873
F2772.7151148590174
sS'upward'
p1874
F7883.2342173461575
sg1079
F3915.8734611211885
sS'weighted'
p1875
F2839.688375155127
sg718
F57968.00547310245
sg721
F4066.7263653061004
sS'stockbrokers'
p1876
F4354.912929769108
sg84
F3473.710294707468
sg883
F26425.295042763777
sS'category'
p1877
F4003.6830963444118
sS'goh'
p1878
F11082.222717645232
sg735
F3799.0870524178436
sg93
F4741.475868645125
sS'middleman'
p1879
F2619.1449881233043
sS'mccarthy'
p1880
F3312.3171800084388
sS'participants'
p1881
F3168.99840545501
sS'surprise'
p1882
F6205.0462305599885
sS'occurs'
p1883
F2739.0229414654755
sS'friday'
p1884
F2865.2492030631456
sS'venezula'
p1885
F2772.7151148590174
sg757
F3033.0181007298065
sS'regulators'
p1886
F2578.2705458452706
sS'base'
p1887
F74027.87672551519
sS'provident'
p1888
F4804.029934513109
sg759
F44066.37659770887
sS'crowned'
p1889
F2772.7151148590174
sS'card'
p1890
F28560.336669930843
sS'carnival'
p1891
F4460.604409365395
sS'leiner'
p1892
F9600.445901509469
sS'days'
p1893
F34325.97372964442
sS'overdraft'
p1894
F2772.7151148590174
sS'afterwhich'
p1895
F2772.7151148590174
sS'nigel'
p1896
F6994.567783790173
sg782
F22546.843147639764
sg157
F4314.342678942802
sS'tomorrow'
p1897
F15214.504325304233
sS'sparkassen'
p1898
F2772.7151148590174
sg826
F6790.788236945098
sg798
F12201.764680798358
sS'felipe'
p1899
F2772.7151148590174
sS'top'
p1900
F3623.958830827157
sS'tata'
p1901
F2772.7151148590174
sg803
F6715.7577539765025
sS'tok'
p1902
F2772.7151148590174
sS'airs'
p1903
F2772.7151148590174
sg460
F301859.07347040426
sS'percentage'
p1904
F24722.52885172376
sS'macsharry'
p1905
F2772.7151148590174
sS'crunched'
p1906
F2772.7151148590174
sS'resler'
p1907
F2619.1449881233043
sS'injected'
p1908
F2739.0264745178188
sS'collaterals'
p1909
F2619.1449881233043
sS'thai'
p1910
F3257.512249898773
sS'coinage'
p1911
F2772.7151148590174
sg827
F5470.510886737611
sg212
F106026.65173061019
sS'nathan'
p1912
F2619.1449881233043
sg832
F14605.367708250165
sS'citibank'
p1913
F7019.952888106126
sg345
F258613.03270718572
sS'wysoglad'
p1914
F2619.1449881233043
sS'troublesome'
p1915
F2772.7151148590174
sS'dwindles'
p1916
F2772.7151148590174
sS'dogmatically'
p1917
F2772.7151148590174
sS'remained'
p1918
F4970.201043656592
sS'unchanged'
p1919
F5113.762628585905
sS'blip'
p1920
F11082.222717645232
sS'haumer'
p1921
F2772.7151148590174
sS'anz'
p1922
F3811.595083993433
sS'relatively'
p1923
F3095.9240455072013
sS'subduing'
p1924
F2772.7151148590174
sS'clearer'
p1925
F2833.835914084586
sS'visa'
p1926
F6599.286162203219
sg788
F3180.3944578616315
sS'singer'
p1927
F3544.7423925070757
sS'inexorable'
p1928
F2772.7151148590174
sg902
F25312.288549344183
sS'average'
p1929
F3203.5220738794983
sS'ramirez'
p1930
F3292.359736871415
sS'points'
p1931
F4718.030839724837
sg916
F29520.00309644228
sg917
F21334.75979719455
sg666
F5143.513778125326
sS'lewis'
p1932
F2945.1804545243267
sS'mains'
p1933
F11082.222717645232
sS'rowena'
p1934
F3645.063513475176
sg655
F12696.668771468745
sS'setter'
p1935
F2772.7151148590174
sS'indicator'
p1936
F5859.264836419342
sS'dampening'
p1937
F2833.830768669969
sg670
F10100.788121311789
sS'lombard'
p1938
F5167.634571439872
sS'cushion'
p1939
F3292.359736871415
sS'societies'
p1940
F11940.777483412081
sS'prime'
p1941
F154014.82825247178
sg61
F5456.615268457081
sg703
F7563.535776498129
sg705
F8915.751421412431
sS'westminister'
p1942
F2772.7151148590174
sg706
F8857.434228327824
sS'guessing'
p1943
F4804.032209563444
sS'requirement'
p1944
F5043.968980947998
sg717
F3354.4678348184984
sg77
F3254.491163601663
sg626
F2598.3629368818906
sS'national'
p1945
F4234.994676218838
sg781
F3850.525928699388
sS'despatch'
p1946
F2772.7151148590174
sS'mortgage'
p1947
F5800.023831459585
sg736
F33672.46816697337
sS'clearing'
p1948
F5859.232887925323
sg741
F4222.502224543528
sS'ionterest'
p1949
F2772.7151148590174
sg747
F43807.92615314648
sS'denomination'
p1950
F3302.3145407582365
sS'remsperger'
p1951
F2619.1449881233043
sS'mcentee'
p1952
F5235.484464142181
sS'key'
p1953
F2693.213018919597
sS'amorn'
p1954
F2772.7151148590174
sS'retracement'
p1955
F2619.1433760556984
sS'cox'
p1956
F5235.484464142181
sg785
F3412.3888555037415
sS'oesterreichischen'
p1957
F2772.7151148590174
sg516
F2806.466344522473
sS'mildly'
p1958
F3593.3701342711147
sS'brad'
p1959
F3811.573161113434
sg240
F5147.926578925438
sS'invites'
p1960
F3927.666350912228
sg783
F59389.4242806012
sS'allocates'
p1961
F3593.3701342711147
sS'hellmuth'
p1962
F2772.7151148590174
sS'quinn'
p1963
F11082.222717645232
sS'poll'
p1964
F3865.382434328032
sS'billing'
p1965
F3593.3701342711147
sS'wien'
p1966
F2772.7151148590174
sg807
F8960.510287043018
sg531
F55857.60855380763
sg808
F6157.4798557567365
sS'harwood'
p1967
F3485.7418966638943
sg1066
F3440.520255104006
sS'orgnaization'
p1968
F2772.7151148590174
sS'linnebank'
p1969
F3302.309519425224
sS'gnp'
p1970
F2708.7060087871496
sS'replaces'
p1971
F4460.595774739421
sg540
F2622.7304140628903
sg216
F4141.070378241053
sg724
F11382.85032031724
sS'griggs'
p1972
F5235.49413317837
sS'whelan'
p1973
F3645.063513475176
sg845
F5553.429931971979
sS'seipp'
p1974
F4305.296736077364
sg849
F5035.496554371505
sS'averaging'
p1975
F3075.691481192065
sS'slifer'
p1976
F2867.347353411094
sg245
F8106.005531559568
sg786
F5327.389165273496
sS'chase'
p1977
F3876.8705501619675
sS'koerner'
p1978
F2772.7151148590174
sS'suggest'
p1979
F2578.2148705480195
sS'enquiries'
p1980
F3674.3912395434686
sS'karl'
p1981
F4673.38339349452
sS'otto'
p1982
F2577.3185803734077
sg852
F10415.592070656015
sS'pontiacs'
p1983
F8313.825352188282
sg880
F35249.88068325763
sS'conflicting'
p1984
F2994.234240983861
sS'jeffrey'
p1985
F9293.551612997037
sg549
F4901.429078168282
sS'counterparty'
p1986
F5879.5684692508285
sS'pontiac'
p1987
F3302.309519425224
sS'minneaplois'
p1988
F2772.7151148590174
sS'cardholders'
p1989
F2772.7151148590174
sg888
F4989.070675036962
sg896
F12769.116927051471
sS'downpayment'
p1990
F2772.7151148590174
sS'mcculley'
p1991
F5543.9898582297965
sS'recent'
p1992
F4610.168005573118
sg900
F7464.461813233226
sg198
F4416.043254632123
sg901
F13569.44323389974
sS'westpac'
p1993
F2740.0025449127907
sS'zentralsparkasse'
p1994
F2772.7151148590174
sS'mortgages'
p1995
F5224.1964792843955
sg1651
F3454.4277697623866
sg564
F161498.19893052513
sS'ldn'
p1996
F2772.7151148590174
sS'adjustable'
p1997
F2833.841059356613
sS'tcf'
p1998
F5543.9898582297965
sS'followed'
p1999
F3352.045374810102
sS'rundown'
p2000
F3593.3701342711147
sg658
F62719.887423459426
sS'ease'
p2001
F7723.092819491602
sS'supply'
p2002
F6507.319106959304
sg663
F4101.705344158594
sS'signals'
p2003
F6796.996928426207
sg667
F32334.840912660173
sS'surprised'
p2004
F10359.41999697892
sg680
F6587.771726444735
sg682
F4348.567556082234
sg684
F16347.7808556742
sg857
F11153.15235427254
sg689
F8745.140714057121
sS'pesetas'
p2005
F3004.52667170269
sS'immediately'
p2006
F5785.5948060276505
sS'ams'
p2007
F2772.7151148590174
sg60
F8201.43838429983
sg694
F15995.001007378565
sS'erste'
p2008
F2772.7151148590174
sS'signal'
p2009
F9273.703142459888
sS'skeoch'
p2010
F3292.3667062258214
sS'latters'
p2011
F2772.7151148590174
sg707
F20421.428517856846
sS'yields'
p2012
F6491.837346659961
sS'kearney'
p2013
F2772.7151148590174
sS'old'
p2014
F2842.905328895934
sg840
F3964.2274944645405
sg593
F2896.3371687311906
sg848
F10421.945597365288
sg595
F2685.370181780418
sS'indirect'
p2015
F13322.507654258356
sS'pale'
p2016
F2772.7151148590174
sg732
F8093.971726063446
sS'reinvest'
p2017
F2772.7151148590174
sg96
F3972.082055315448
sS'dehesa'
p2018
F2772.7151148590174
sS'allocate'
p2019
F4460.604409365395
sS'innovation'
p2020
F2619.1433760556984
sS'optima'
p2021
F2772.7151148590174
sg110
F4783.560858679771
sS'mastercard'
p2022
F6119.661797233424
sg602
F3040.1344394592907
sg755
F8562.745157435127
sS'chart'
p2023
F3880.411050794557
sg877
F61806.001560784345
sS'staunchly'
p2024
F5543.9898582297965
sS'viewpoints'
p2025
F2772.7151148590174
sS'maximium'
p2026
F2772.7151148590174
sS'taboo'
p2027
F2772.7151148590174
sS'bootle'
p2028
F7182.953755365886
sS'zur'
p2029
F2772.7151148590174
sg126
F9011.871886820687
sS'cautious'
p2030
F4178.462298000616
sg762
F15308.422099296567
sS'midland'
p2031
F7989.248021322728
sS'range'
p2032
F2655.926514407031
sg773
F9316.512774202176
sS'outlook'
p2033
F5179.330089227413
sg784
F5189.334614070314
sg787
F4337.56773366446
sS'megabank'
p2034
F2772.7151148590174
sg161
F6098.073855918083
sS'electorate'
p2035
F3593.3701342711147
sS'fellner'
p2036
F8474.336728085518
sS'guideline'
p2037
F5543.9898582297965
sS'suntrust'
p2038
F8313.825352188282
sg617
F4912.575719810151
sS'vak'
p2039
F8313.825352188282
sS'seger'
p2040
F2619.1449881233043
sS'unav'
p2041
F8313.825352188282
sS'resists'
p2042
F2772.7151148590174
sS'unquoted'
p2043
F5235.49413317837
sg297
F5190.443152912642
sS'storehouse'
p2044
F3645.0704046436317
sg819
F66666.76948193875
sS'compensating'
p2045
F2772.7151148590174
sS'clemente'
p2046
F6542.621626142829
sS'strenuous'
p2047
F8313.825352188282
sS'hopes'
p2048
F4065.4956213230403
sS'raising'
p2049
F4561.357310343053
sS'fades'
p2050
F2772.7151148590174
sS'rush'
p2051
F8474.325245603899
sS'glory'
p2052
F2772.7151148590174
sS'eurosterling'
p2053
F3865.4392569972165
sS'bellwether'
p2054
F2772.7151148590174
sS'excitement'
p2055
F2619.1433760556984
sS'maturity'
p2056
F10094.782922877737
sS'netting'
p2057
F3927.668768575434
sS'similar'
p2058
F4240.243652257714
sS'flatten'
p2059
F3593.3701342711147
sS'kahan'
p2060
F11082.222717645232
sS'isda'
p2061
F5235.49413317837
sS'shooting'
p2062
F3593.3701342711147
sS'mcginley'
p2063
F5235.484464142181
sg255
F4809.325188025559
sS'pietsch'
p2064
F2772.7151148590174
sS'interst'
p2065
F2772.7151148590174
sS'westminster'
p2066
F28710.229495536947
sg874
F6085.286846459174
sS'manhattan'
p2067
F5189.297747219235
sS'gonzalez'
p2068
F2772.7151148590174
sS'lend'
p2069
F3273.9720808887746
sg894
F4127.747822003747
sS'vithoon'
p2070
F2772.7151148590174
sg899
F5558.003890188445
sS'building'
p2071
F3971.123419073976
sS'deregulates'
p2072
F2772.7151148590174
sS'likeliest'
p2073
F2772.7151148590174
sS'annuity'
p2074
F2772.7151148590174
sS'curve'
p2075
F3302.307008706273
sg907
F10736.355360468933
sg910
F13345.427246706917
sg315
F9530.375104432318
sg915
F5396.63894752017
sg872
F15448.135782774541
ssVcrude
p2076
(dp2077
S'ali'
p2078
F18161.847619337343
sS'southland'
p2079
F8177.150856760337
sS'research'
p2080
F4280.386365153092
sS'canterra'
p2081
F4482.725117019008
sS'papandreou'
p2082
F12821.792936497006
sS'sanford'
p2083
F4787.29509483246
sS'simon'
p2084
F5924.420597944708
sS'shehadi'
p2085
F7030.682479929831
sS'zone'
p2086
F4517.763330137738
sS'turkish'
p2087
F12340.501060070472
sS'iraqi'
p2088
F25409.69434752819
sS'warplanes'
p2089
F9868.4999431876
sS'graven'
p2090
F8786.88322985042
sS'postings'
p2091
F38820.95971446035
sS'wildlife'
p2092
F12679.725200457364
sS'downstream'
p2093
F4787.28935672868
sg1494
F12891.787567555462
sS'saudi'
p2094
F96302.33867376359
sS'lazier'
p2095
F5501.223256373376
sS'riyadh'
p2096
F8933.890881733747
sS'mediterranean'
p2097
F6440.427800692939
sS'onshore'
p2098
F7569.63336076531
sS'mckiernan'
p2099
F5273.894077089743
sS'ebinger'
p2100
F5273.894077089743
sS'rrt'
p2101
F5273.894077089743
sS'lukman'
p2102
F36806.41439388787
sS'synfuels'
p2103
F5273.894077089743
sS'abu'
p2104
F12022.466978740022
sg354
F4985.720656364374
sg103
F10451.39993672983
sS'distillate'
p2105
F25223.006373723096
sS'iagifu'
p2106
F7030.682479929831
sS'explosion'
p2107
F8822.619781499412
sS'desires'
p2108
F5273.894077089743
sS'christi'
p2109
F10474.519566229785
sS'pennzoil'
p2110
F7216.848183739072
sS'residual'
p2111
F9789.185023182801
sS'pumping'
p2112
F25762.83706975144
sS'iraq'
p2113
F18758.834674429912
sS'earthquake'
p2114
F31455.821891752053
sS'search'
p2115
F4142.421553658584
sS'yanbu'
p2116
F5273.894077089743
sg215
F10965.870262375713
sg364
F8118.039707347639
sS'throughput'
p2117
F8177.138920163363
sS'military'
p2118
F5827.9713401054505
sS'aqazadeh'
p2119
F12297.522949972568
sS'norsk'
p2120
F6728.692650552944
sS'members'
p2121
F4764.710699576501
sS'rilwanu'
p2122
F10542.496621660668
sS'api'
p2123
F44424.48187765183
sS'petroles'
p2124
F4816.558564804479
sS'mobil'
p2125
F33788.796832658314
sS'cheating'
p2126
F5273.894077089743
sS'troops'
p2127
F12513.737572156955
sS'oilfields'
p2128
F7436.203151681568
sS'petroleum'
p2129
F110952.93445608992
sS'athens'
p2130
F12821.754744882643
sS'raids'
p2131
F8177.150856760337
sS'alvite'
p2132
F29860.06457121914
sS'mcivor'
p2133
F15973.421280843802
sg813
F4090.878430326832
sS'usx'
p2134
F11153.783189308431
sS'cutbacks'
p2135
F5220.675549166066
sS'diamond'
p2136
F4070.2416853531245
sS'netback'
p2137
F10542.496621660668
sS'benchmark'
p2138
F18548.72769850813
sS'fesharaki'
p2139
F8786.88322985042
sS'benbow'
p2140
F7030.682479929831
sS'fuel'
p2141
F13995.778753290291
sS'producing'
p2142
F11484.090495447335
sS'shamrock'
p2143
F4206.991172678574
sS'gasoline'
p2144
F24864.693687004376
sS'grangemouth'
p2145
F12297.522949972568
sS'sour'
p2146
F21545.075350271145
sS'drill'
p2147
F10900.64505967021
sS'lubricant'
p2148
F5273.894077089743
sS'oilfield'
p2149
F6124.840116240347
sS'mees'
p2150
F4482.725117019008
sS'gholamreza'
p2151
F5273.894077089743
sS'spr'
p2152
F5618.34291903315
sg195
F8219.103653281723
sg860
F20076.69310408619
sS'refine'
p2153
F8786.88322985042
sS'uae'
p2154
F6130.535482678401
sS'kuwaiti'
p2155
F18295.931572618694
sS'flank'
p2156
F6056.878798301368
sg273
F5308.123000367989
sS'offshore'
p2157
F35412.314710043334
sS'blocks'
p2158
F25320.975187220276
sS'waters'
p2159
F12319.599136734274
sS'sweeney'
p2160
F5273.894077089743
sS'spot'
p2161
F13219.35588828515
sS'damaged'
p2162
F5070.9848593707575
sS'santana'
p2163
F14086.124602084283
sS'president'
p2164
F5578.384367641179
sS'prospecting'
p2165
F5335.547299656851
sS'pemex'
p2166
F10625.160533997761
sS'light'
p2167
F8480.50745459226
sS'baghdad'
p2168
F12035.045652973591
sS'greek'
p2169
F26549.827598617885
sS'jungle'
p2170
F18628.29906495455
sg642
F4424.437796502373
sS'repair'
p2171
F10423.116231367549
sS'quake'
p2172
F15588.311078336932
sS'member'
p2173
F4152.530893807223
sS'apea'
p2174
F10542.496621660668
sg828
F34545.00483124329
sS'mckinley'
p2175
F7030.682479929831
sS'norway'
p2176
F6763.309445444397
sg41
F19548.86416971268
sS'conoco'
p2177
F10401.12835275433
sS'grisanti'
p2178
F20798.05922659326
sS'aguarico'
p2179
F5273.894077089743
sg61
F8600.992740340951
sS'refineries'
p2180
F43172.18257175361
sS'drilling'
p2181
F43707.09636490245
sS'day'
p2182
F50562.365169580604
sg423
F8348.24628836287
sS'repaired'
p2183
F12353.272482670807
sS'taqi'
p2184
F7030.682479929831
sS'barrels'
p2185
F297725.4382840763
sS'roxy'
p2186
F7193.8094674753165
sS'energy'
p2187
F116202.96716563754
sS'advocated'
p2188
F4482.725117019008
sS'persian'
p2189
F5174.889353842204
sS'navy'
p2190
F4473.828274975509
sS'shutdowns'
p2191
F6056.878798301368
sg93
F4356.462725689335
sS'kuwait'
p2192
F54203.305893323544
sS'defend'
p2193
F5124.408882796124
sS'adhere'
p2194
F5335.537967247557
sS'operatorships'
p2195
F5273.894077089743
sS'jukardi'
p2196
F5273.894077089743
sS'norske'
p2197
F8285.911318544977
sS'venezuela'
p2198
F36565.870127853275
sS'shut'
p2199
F7021.387458126175
sS'disputed'
p2200
F6536.783966474729
sS'quito'
p2201
F12022.478915543727
sS'incentives'
p2202
F8883.791297005782
sS'ors'
p2203
F5273.894077089743
sS'kharg'
p2204
F13441.157691846905
sS'mizrahi'
p2205
F5273.894077089743
sS'espinosa'
p2206
F12679.725200457364
sS'sheikh'
p2207
F31564.150432675633
sS'liquids'
p2208
F6536.827888397168
sS'suspend'
p2209
F4293.6498034302485
sS'evans'
p2210
F5314.685300202542
sS'revenue'
p2211
F6618.989306985393
sS'mexicanos'
p2212
F7193.8094674753165
sS'strategic'
p2213
F8883.898249999525
sS'feet'
p2214
F13753.180587248053
sS'opec'
p2215
F477817.40828368464
sS'chevron'
p2216
F13441.115120239756
sS'warships'
p2217
F13899.469913050072
sS'discharged'
p2218
F5273.894077089743
sS'trillion'
p2219
F8745.631156831043
sS'attack'
p2220
F8634.662208814114
sS'intermediate'
p2221
F8750.715917291544
sS'krapels'
p2222
F5273.894077089743
sS'escort'
p2223
F9937.316752249248
sS'rigs'
p2224
F22255.106353662395
sS'champlin'
p2225
F25203.139152067542
sS'ecuador'
p2226
F119626.21415219718
sS'ceiling'
p2227
F23132.77007785947
sS'shell'
p2228
F32210.31697207572
sS'taxation'
p2229
F8368.340326891474
sS'samudio'
p2230
F5273.894077089743
sS'tehran'
p2231
F5082.4036002558405
sS'natural'
p2232
F21231.22122862347
sS'corpus'
p2233
F10474.519566229785
sS'png'
p2234
F12297.522949972568
sS'petrobras'
p2235
F59400.81320051156
sS'king'
p2236
F7054.326601312644
sS'iranian'
p2237
F47556.37179221084
sS'gabon'
p2238
F6056.875306583147
sg855
F5087.6791152973965
sS'prt'
p2239
F24100.23528110896
sS'agrio'
p2240
F5501.223256373376
sS'marathon'
p2241
F6890.336795815767
sS'exploratory'
p2242
F17535.37309480946
sS'efp'
p2243
F5273.894077089743
sS'scotland'
p2244
F4482.725117019008
sS'gravity'
p2245
F6056.875306583147
sS'reliance'
p2246
F11923.530481047734
sS'masse'
p2247
F10625.160533997761
sS'fuels'
p2248
F4865.728458366148
sS'permian'
p2249
F5575.625484842865
sS'price'
p2250
F11867.203839287875
sS'quota'
p2251
F17638.424327672
sS'wells'
p2252
F38135.86223677781
sS'depths'
p2253
F4482.725117019008
sS'mouth'
p2254
F6419.842588313147
sS'tract'
p2255
F4482.725117019008
sS'stats'
p2256
F5273.894077089743
sS'esso'
p2257
F4663.367209542136
sS'alaskan'
p2258
F9868.482887646851
sS'jakarta'
p2259
F5216.471991331684
sS'doe'
p2260
F8177.144888503671
sS'refining'
p2261
F32927.09634064374
sS'qassem'
p2262
F5273.894077089743
sS'barrel'
p2263
F163176.39530041502
sS'slope'
p2264
F5501.223256373376
sS'draugen'
p2265
F7030.682479929831
sS'saga'
p2266
F14051.962509201114
sS'randol'
p2267
F7030.682479929831
sS'mercalli'
p2268
F6056.875306583147
sS'discovered'
p2269
F6118.109429322976
sg1021
F30472.032653436912
sS'statoil'
p2270
F12297.522949972568
sS'arabian'
p2271
F12724.61904080335
sS'liquified'
p2272
F5501.223256373376
sS'iea'
p2273
F36806.41439388787
sS'sur'
p2274
F5273.894077089743
sS'hisham'
p2275
F15805.815593564465
sS'silas'
p2276
F6044.542571511911
sS'coast'
p2277
F7190.550405836201
sS'hydrocracker'
p2278
F19311.76351358504
sS'amazon'
p2279
F6056.875306583147
sS'haltenbanken'
p2280
F7030.682479929831
sS'runs'
p2281
F11372.604109441148
sS'herrington'
p2282
F50062.51597446625
sS'gareth'
p2283
F5273.894077089743
sS'fields'
p2284
F26223.103731961703
sS'adhering'
p2285
F9325.197493280171
sS'maciej'
p2286
F7030.682479929831
sS'miles'
p2287
F9711.71606090717
sS'tanker'
p2288
F9789.304644369411
sg77
F4603.756848020384
sS'aegean'
p2289
F34203.99215019491
sS'sea'
p2290
F34026.12563129974
sS'greece'
p2291
F16444.15143026047
sS'iran'
p2292
F19426.701255308377
sg89
F6767.760717358076
sS'capacity'
p2293
F9778.276026155587
sS'installations'
p2294
F5365.206392158731
sS'discounts'
p2295
F6783.767025951894
sS'crude'
p2296
F355370.3841055129
sS'emirates'
p2297
F9937.236961870509
sS'wti'
p2298
F26316.634579032725
sS'isthmus'
p2299
F5273.894077089743
sS'javier'
p2300
F6728.676672532626
sg1333
F4893.189596537158
sS'libya'
p2301
F4112.598683100705
sS'region'
p2302
F4558.11406818172
sS'nowruz'
p2303
F4482.725117019008
sg516
F4263.930363064191
sS'pancanadian'
p2304
F5273.894077089743
sS'allowance'
p2305
F13159.794005607897
sS'sweet'
p2306
F24616.171419255523
sg255
F4581.835873426
sS'malmgreen'
p2307
F5273.894077089743
sS'drilled'
p2308
F7808.969494364563
sS'turkey'
p2309
F7985.470511855483
sS'kaputin'
p2310
F5273.894077089743
sS'bbl'
p2311
F26269.877691344805
sS'raise'
p2312
F6148.866400421303
sS'petronas'
p2313
F5273.894077089743
sS'ngls'
p2314
F5273.894077089743
sS'napo'
p2315
F5273.894077089743
sS'deliberately'
p2316
F8285.901444556794
sS'basin'
p2317
F11859.80484949476
sg1060
F4399.114463514853
sS'nugent'
p2318
F6130.54641117337
sS'hernandez'
p2319
F34069.96853497261
sS'pdvsa'
p2320
F35347.09006035119
sS'attacked'
p2321
F10423.126578927424
sS'mcf'
p2322
F5972.69986289929
sg535
F78815.79154840065
sS'guerard'
p2323
F5273.894077089743
sS'expenditure'
p2324
F10960.921916504167
sg1437
F16348.502818409468
sS'demand'
p2325
F9631.450611138696
sg1753
F57973.96209556752
sS'wildcat'
p2326
F5273.894077089743
sS'lessen'
p2327
F5575.605870320746
sS'eia'
p2328
F14316.777323064991
sS'tumaco'
p2329
F5273.894077089743
sS'pertamina'
p2330
F5205.032123738027
sS'discoveries'
p2331
F6587.453303873673
sg799
F4423.035983478831
sS'strait'
p2332
F9961.131371663616
sS'refinery'
p2333
F105358.94458779882
sS'middle'
p2334
F6126.0268045934945
sS'fitzwater'
p2335
F6366.323161630157
sS'arabia'
p2336
F59902.768238775374
sS'rig'
p2337
F11905.736062610249
sS'refiners'
p2338
F9663.16430365173
sS'santos'
p2339
F22356.663965942524
sS'missiles'
p2340
F10457.095278474997
sS'salina'
p2341
F6056.878798301368
sS'liftings'
p2342
F12353.272482670807
sS'fill'
p2343
F8522.29319675948
sS'development'
p2344
F4944.595129172004
sg549
F804625.5839195792
sS'ecuadorean'
p2345
F14215.81071802395
sS'cubic'
p2346
F40338.095729103334
sS'oapec'
p2347
F7030.682479929831
sS'norwegian'
p2348
F7375.504186028605
sS'arrived'
p2349
F5972.69986289929
sS'gaspar'
p2350
F4482.725117019008
sS'guayaquil'
p2351
F5273.894077089743
sS'arturo'
p2352
F13711.173346299718
sS'indonesia'
p2353
F4115.0601513128
sS'well'
p2354
F6972.339602374879
sS'margoshes'
p2355
F20290.125255851566
sS'bonny'
p2356
F7030.682479929831
sS'riyals'
p2357
F4832.642234186974
sS'powerine'
p2358
F5273.894077089743
sS'grades'
p2359
F11571.291270646907
sS'citgo'
p2360
F14326.913746903967
sS'visnews'
p2361
F12297.522949972568
sS'amoco'
p2362
F15183.348070734532
sS'killed'
p2363
F4379.936937856548
sS'nato'
p2364
F8022.010735566341
sS'weinberger'
p2365
F4295.984449256791
sS'east'
p2366
F8055.380018488603
sS'maya'
p2367
F5273.894077089743
sS'emergency'
p2368
F7137.974414421578
sS'operatorship'
p2369
F5273.894077089743
sg687
F14820.00362487798
sS'cruz'
p2370
F6721.784889933512
sS'bpd'
p2371
F420390.1731813939
sS'worldscale'
p2372
F4816.568124069851
sg60
F10662.006039608295
sS'dubai'
p2373
F15822.264436873176
sS'exxon'
p2374
F28613.35214551836
sS'dibona'
p2375
F10625.160533997761
sS'suppliers'
p2376
F4606.315773234507
sS'fernando'
p2377
F14810.552087460735
sg587
F4676.122092415384
sS'night'
p2378
F4128.15886746041
sS'output'
p2379
F26670.557966380784
sS'bankruptcies'
p2380
F5501.223256373376
sg1510
F5787.475293750953
sS'hair'
p2381
F7030.682479929831
sS'meters'
p2382
F15705.241150976593
sS'mideast'
p2383
F10764.560384102031
sS'brent'
p2384
F14810.552087460735
sS'netbacks'
p2385
F14051.962509201114
sS'qatar'
p2386
F14629.675116423692
sS'caribbean'
p2387
F5220.701951842671
sS'fos'
p2388
F7030.682479929831
sS'depletion'
p2389
F13834.85137594887
sS'ecopetrol'
p2390
F10542.496621660668
sS'tankers'
p2391
F23013.243261610365
sg110
F7065.318315916275
sg602
F4320.995556397508
sS'fee'
p2392
F8907.533945439975
sS'refuge'
p2393
F7193.8094674753165
sS'saudis'
p2394
F71621.20592127355
sS'pipeline'
p2395
F71281.42290791118
sS'consumption'
p2396
F4926.745000390876
sS'attacks'
p2397
F9649.491890211379
sg1401
F20414.937838294834
sS'dependence'
p2398
F17299.779755498294
sS'surfers'
p2399
F10542.496621660668
sS'papua'
p2400
F5174.8780226292765
sS'wellemeyer'
p2401
F8786.88322985042
sS'suharto'
p2402
F8933.904437067364
sS'crudes'
p2403
F25763.742992782318
sS'yergin'
p2404
F4543.2513193406785
sS'bbls'
p2405
F11905.72702927693
sS'wam'
p2406
F5273.894077089743
sS'texaco'
p2407
F39936.010305664655
sS'mcmillan'
p2408
F7030.682479929831
sS'nova'
p2409
F4957.1919483914835
sS'lago'
p2410
F5501.223256373376
sS'venezuelan'
p2411
F14419.40378465317
sS'north'
p2412
F6555.76701986023
sS'supertanker'
p2413
F9541.668917218882
sS'neutral'
p2414
F5148.31602733093
sS'fahd'
p2415
F15822.264436873176
sS'metres'
p2416
F5668.258800508341
sS'posted'
p2417
F7661.729167217563
sS'count'
p2418
F8778.593035663886
sS'windfall'
p2419
F9668.950710527515
sS'exploration'
p2420
F120135.42848981006
sS'dirty'
p2421
F4816.568124069851
sS'destocking'
p2422
F7193.8094674753165
sS'proved'
p2423
F9231.051005835327
sS'availabilities'
p2424
F5273.894077089743
sS'ship'
p2425
F5689.695354328839
sS'ina'
p2426
F11452.692281577672
sS'stripper'
p2427
F10542.496621660668
sS'caracas'
p2428
F17849.543365206468
sS'field'
p2429
F37778.12493764925
sS'balao'
p2430
F22815.369059849127
sS'subroto'
p2431
F33323.789065410696
sS'unocal'
p2432
F13606.181263714709
sg2069
F6807.067616606335
sS'nazer'
p2433
F57723.10868760103
sS'terra'
p2434
F12353.272482670807
sS'mlotok'
p2435
F5501.223256373376
sS'nymex'
p2436
F14810.552087460735
sS'seismic'
p2437
F4787.28935672868
sS'stocks'
p2438
F18836.253514064898
sS'urals'
p2439
F7030.682479929831
sg315
F11171.660280338712
sS'petroleos'
p2440
F21003.003113292783
ssVship
p2441
(dp2442
S'corps'
p2443
F5322.059928594349
sg324
F3835.0842883013665
sS'unrest'
p2444
F9293.562034090233
sS'protest'
p2445
F9025.179973969813
sS'debris'
p2446
F5322.059928594349
sg96
F3881.44439798876
sS'winds'
p2447
F6257.427524682115
sS'captain'
p2448
F3445.4459425745663
sg2082
F19994.2331072992
sg2087
F15957.547821606076
sg2088
F8141.973528107345
sg2089
F10005.382225780704
sg438
F4263.261501196642
sg1790
F11064.941510881667
sS'communique'
p2449
F3403.271989093041
sS'kitty'
p2450
F17583.8246807125
sS'mph'
p2451
F4604.465077487496
sg1709
F35460.81688953832
sS'moura'
p2452
F3445.4459425745663
sS'csbc'
p2453
F10638.808420134214
sS'fremantle'
p2454
F5322.059928594349
sS'sank'
p2455
F13295.193361155501
sS'bahia'
p2456
F2768.1116449702868
sS'force'
p2457
F3309.5352692781944
sS'leaders'
p2458
F5934.50908631922
sS'suez'
p2459
F3445.4459425745663
sg345
F5141.364612777878
sS'syndarma'
p2460
F5870.136830130258
sS'cartel'
p2461
F9714.03975569832
sS'port'
p2462
F122246.99130922931
sS'universities'
p2463
F2709.3411679648543
sS'cargo'
p2464
F65329.96475671026
sS'defence'
p2465
F8335.132792961365
sS'panama'
p2466
F7737.638429239778
sg17
F4319.352499061905
sg1529
F3469.5051432693654
sS'turgut'
p2467
F3159.917070340628
sS'liberte'
p2468
F5322.059928594349
sS'nurse'
p2469
F5322.059928594349
sS'conciliator'
p2470
F5870.136830130258
sg2292
F60318.34787599024
sS'klaipeda'
p2471
F3445.4459425745663
sS'christa'
p2472
F5322.059928594349
sg359
F7861.40372825073
sS'yards'
p2473
F32229.934611717094
sS'congestion'
p2474
F4604.465077487496
sg2113
F6282.147021022592
sS'passengers'
p2475
F12009.430058890855
sS'panamax'
p2476
F3761.4369992567367
sS'naval'
p2477
F22952.238179501175
sg215
F12408.76678412633
sS'reports'
p2478
F3240.850497024999
sg118
F5065.969150116391
sS'navigation'
p2479
F20773.32553928097
sS'blizzard'
p2480
F5870.136830130258
sS'transit'
p2481
F3484.2133237437806
sS'africa'
p2482
F4023.035044488775
sS'mousavi'
p2483
F10638.808420134214
sS'habbema'
p2484
F7981.097606918753
sS'drowned'
p2485
F5322.059928594349
sS'armed'
p2486
F2858.371351422196
sS'crisis'
p2487
F3182.6515972678094
sg793
F4740.023317301508
sS'andreas'
p2488
F6265.843032584425
sg2127
F10046.067373937714
sS'warship'
p2489
F5816.542303297132
sS'illegal'
p2490
F6300.942972472779
sg2130
F10811.888018845753
sS'abbas'
p2491
F5322.059928594349
sg2131
F2858.378361166086
sS'strike'
p2492
F113578.4052515102
sS'midmississippi'
p2493
F3145.02886236723
sS'thassos'
p2494
F3761.4369992567367
sS'pazzionotto'
p2495
F9276.483102100847
sg196
F3438.2200581381294
sS'pfl'
p2496
F5322.059928594349
sS'missile'
p2497
F27521.71428278192
sS'flag'
p2498
F11393.102966280121
sS'burnside'
p2499
F5322.059928594349
sS'salvaged'
p2500
F5322.059928594349
sS'berth'
p2501
F3891.7009577975005
sS'marmara'
p2502
F5322.059928594349
sS'f'
p2503
F4156.427313754886
sS'der'
p2504
F3154.7254338129046
sS'work'
p2505
F3496.7973965363776
sS'escorted'
p2506
F5013.9615577188915
sS'incidents'
p2507
F4604.462803438914
sS'ferry'
p2508
F53337.10134327815
sS'hormuz'
p2509
F35585.97141433762
sS'salvage'
p2510
F8767.673024275833
sg240
F5091.961526300251
sS'collision'
p2511
F3445.4459425745663
sS'locks'
p2512
F5870.136830130258
sS'bandar'
p2513
F5322.059928594349
sS'timecharter'
p2514
F3639.134902748504
sS'handle'
p2515
F3317.6764424254943
sS'keep'
p2516
F3016.545548003273
sS'returned'
p2517
F4449.792957855431
sS'redundancy'
p2518
F5816.539216267917
sS'dwt'
p2519
F32229.934611717094
sS'carriers'
p2520
F4715.0532419350375
sS'provisioning'
p2521
F3159.919578034989
sS'toxic'
p2522
F3445.4459425745663
sg273
F3507.5958202572406
sg276
F5524.611438681837
sS'tension'
p2523
F7004.498522091796
sS'zeebrugge'
p2524
F24002.3824153555
sg2159
F15973.655493480024
sS'halted'
p2525
F3317.7117035408323
sg2155
F21513.938293987158
sS'waves'
p2526
F8387.512451012717
sg2277
F7355.575512375153
sS'jiang'
p2527
F4604.465077487496
sS'lines'
p2528
F7926.387419115911
sS'liner'
p2529
F11731.401005050728
sg2169
F24415.636463703668
sS'stalemated'
p2530
F3445.4459425745663
sS'rafsanjani'
p2531
F3761.4369992567367
sS'freights'
p2532
F11447.835662653457
sg58
F3987.2343733136277
sS'busan'
p2533
F5322.059928594349
sS'shipbuilders'
p2534
F24451.166355046462
sS'silkworm'
p2535
F19308.049093314952
sg1703
F167900.10363908275
sg413
F12774.333775577965
sS'crew'
p2536
F12009.415821453054
sS'survivors'
p2537
F5322.059928594349
sg828
F2954.3875339531983
sS'shipbuilder'
p2538
F6887.403225774595
sS'fio'
p2539
F5322.059928594349
sS'bans'
p2540
F6265.826932921782
sS'janeiro'
p2541
F15823.51300504724
sS'capsized'
p2542
F15950.253421906955
sg423
F7824.711005027205
sS'zeebregts'
p2543
F10638.808420134214
sS'mccormack'
p2544
F2709.346305121118
sS'herald'
p2545
F11393.130588467633
sS'kpa'
p2546
F5322.059928594349
sS'battleships'
p2547
F5322.059928594349
sg72
F3291.25229703392
sS'ports'
p2548
F40407.64042104085
sS'globo'
p2549
F6887.403225774595
sS'fired'
p2550
F3145.0184287423235
sS'badly'
p2551
F3403.2472033472
sg2189
F5834.5126440400145
sg84
F6047.004449695263
sg2190
F28710.80578544417
sS'ambassadors'
p2552
F3159.919578034989
sg1720
F9914.32646523553
sS'saturday'
p2553
F3229.8096041058284
sg1724
F5710.641259472443
sS'container'
p2554
F20120.16605086767
sS'redman'
p2555
F3761.4369992567367
sg93
F5103.799831373382
sg2192
F15579.468541137348
sS'interference'
p2556
F5096.913713058256
sS'vessels'
p2557
F100853.32064394662
sS'safety'
p2558
F4247.617932232459
sS'registries'
p2559
F3445.4459425745663
sS'murilo'
p2560
F5322.059928594349
sg2200
F10515.3304748639
sS'lawrence'
p2561
F8331.803550413388
sS'hulk'
p2562
F7981.097606918753
sg2204
F10180.628103008652
sS'owners'
p2563
F5593.014247468032
sg2288
F33513.61618576518
sS'yard'
p2564
F3445.4459425745663
sS'seamen'
p2565
F140047.98166715022
sS'chittagong'
p2566
F13295.193361155501
sS'louw'
p2567
F4604.462803438914
sS'threat'
p2568
F6732.115838043254
sS'cgrt'
p2569
F10638.808420134214
sS'baltic'
p2570
F12739.40609572532
sg1256
F7005.860025117333
sS'refloated'
p2571
F5322.059928594349
sS'striking'
p2572
F7066.9060596280015
sS'despatched'
p2573
F3445.4459425745663
sS'entrance'
p2574
F2709.3437365607647
sS'scene'
p2575
F5870.136830130258
sS'deadlocked'
p2576
F3761.434583515414
sg2217
F29700.54527539223
sg503
F4147.674322660114
sS'elbe'
p2577
F5322.059928594349
sS'hawk'
p2578
F14875.292232400616
sS'ozal'
p2579
F3159.917070340628
sS'coasts'
p2580
F4390.227618445592
sg1748
F5345.047744995088
sg2220
F9571.376174274235
sg2223
F20716.799997772137
sS'townsend'
p2581
F18757.135854469027
sS'thas'
p2582
F5322.059928594349
sS'trave'
p2583
F5322.059928594349
sS'trapped'
p2584
F5044.031883210325
sS'brazilian'
p2585
F3390.317453728386
sS'took'
p2586
F3001.821351970274
sS'teaneck'
p2587
F5322.059928594349
sg2235
F5199.297898527107
sS'sailing'
p2588
F3159.9145626113686
sg2237
F40022.08908455584
sS'mercantil'
p2589
F3445.4459425745663
sS'compensation'
p2590
F3403.2472033472
sS'ningbo'
p2591
F10638.808420134214
sS'marines'
p2592
F37964.27542864543
sS'berths'
p2593
F5870.136830130258
sS'sao'
p2594
F20442.883491637316
sS'shipowners'
p2595
F27466.153594276904
sS'headquarters'
p2596
F3317.739910749056
sS'gale'
p2597
F3445.4459425745663
sS'occupied'
p2598
F3159.9145626113686
sS'rollbacks'
p2599
F3445.4459425745663
sS'cranes'
p2600
F18603.989593323702
sS'blanca'
p2601
F4647.854463955887
sS'jurisdictions'
p2602
F3445.4459425745663
sg2348
F4144.832169486466
sS'labour'
p2603
F18673.423683337805
sS'shipyards'
p2604
F5816.542303297132
sS'build'
p2605
F5800.219336593402
sS'doors'
p2606
F8282.691780821302
sS'divers'
p2607
F7981.097606918753
sS'mooring'
p2608
F3930.256989747387
sg1713
F3159.919578034989
sS'gralewicz'
p2609
F5870.136830130258
sS'clash'
p2610
F2709.3411679648543
sS'voyage'
p2611
F3159.9145626113686
sS'petrol'
p2612
F3430.947675479214
sS'butterwick'
p2613
F5322.059928594349
sg2254
F5414.43670647523
sS'docemarte'
p2614
F4604.465077487496
sS'larner'
p2615
F10638.808420134214
sS'stranded'
p2616
F3761.4321677403054
sS'enterprise'
p2617
F7780.3375268231475
sS'dos'
p2618
F5322.059928594349
sS'charterer'
p2619
F4604.465077487496
sS'pazzianotto'
p2620
F5322.059928594349
sS'cruises'
p2621
F6265.8390077532
sg2231
F28564.99687050823
sS'iida'
p2622
F10017.633768275873
sS'radio'
p2623
F8829.502519926136
sg1020
F21078.838977097068
sS'tonnage'
p2624
F3623.56987030478
sS'sailings'
p2625
F7981.097606918753
sS'orleans'
p2626
F3403.2967735086377
sg1021
F72303.88338952954
sg99
F3107.2624905474804
sS'deck'
p2627
F3445.4459425745663
sS'waiting'
p2628
F22400.993284359578
sS'hrs'
p2629
F13220.505671379877
sS'terminal'
p2630
F9255.249779247939
sg2271
F7780.3664262710445
sS'avaj'
p2631
F4604.465077487496
sS'versatile'
p2632
F9276.483102100847
sg1712
F20649.76992387733
sg1308
F10872.61116485153
sS'hit'
p2633
F5232.8003096561115
sS'thorensen'
p2634
F5322.059928594349
sS'maritime'
p2635
F24359.80498275137
sS'employers'
p2636
F52677.6636653081
sg2168
F6607.451980087017
sS'hailed'
p2637
F2709.3411679648543
sS'dw'
p2638
F3761.434583515414
sg103
F10267.346490358213
sg61
F5684.095787399527
sS'hangzhou'
p2639
F3445.4459425745663
sS'ventspils'
p2640
F5816.542303297132
sS'flumar'
p2641
F13539.158539961894
sS'vlissingen'
p2642
F5322.059928594349
sS'obscure'
p2643
F5322.059928594349
sS'river'
p2644
F25823.792706243068
sg77
F3554.2502041172447
sg2289
F37226.745311477236
sS'intelligence'
p2645
F7268.578510437597
sS'crewmen'
p2646
F5322.059928594349
sg2290
F18359.00751985651
sg2291
F22441.11385096948
sS'repairs'
p2647
F5096.909511135693
sg89
F3942.620565312691
sS'raided'
p2648
F3159.919578034989
sS'seafarers'
p2649
F16125.20725789318
sS'sail'
p2650
F5816.542303297132
sS'sites'
p2651
F7348.697385539959
sS'tolls'
p2652
F4604.465077487496
sS'mcauliffe'
p2653
F5322.059928594349
sS'schoufour'
p2654
F10638.808420134214
sS'peacetime'
p2655
F7981.097606918753
sS'liberian'
p2656
F13295.193361155501
sg515
F3212.602331764211
sS'tug'
p2657
F6887.4003274099505
sS'fnv'
p2658
F27466.142026888105
sg2302
F4476.663413364519
sS'erupted'
p2659
F2709.3437365607647
sg516
F3707.5536198063655
sS'passing'
p2660
F3154.716612461085
sS'safely'
p2661
F2858.364341486104
sg1695
F9227.265849046318
sS'tilbury'
p2662
F3445.4459425745663
sS'almir'
p2663
F14229.780965137612
sS'harbour'
p2664
F32177.273619509466
sS'tons'
p2665
F5093.107743321948
sS'vessel'
p2666
F78354.59316024787
sS'loaded'
p2667
F3700.227990103175
sS'indefinite'
p2668
F3382.5519445198343
sg2309
F11658.014724936442
sS'caspar'
p2669
F4715.058456847826
sS'capable'
p2670
F3930.2352569873738
sg528
F12561.646626018297
sS'bbc'
p2671
F4390.230935471158
sS'maru'
p2672
F3761.434583515414
sS'collided'
p2673
F7981.097606918753
sS'ergenc'
p2674
F5013.9615577188915
sS'threaten'
p2675
F5985.457719736793
sS'containers'
p2676
F3145.0358178777583
sg2321
F7389.360653413343
sS'bulk'
p2677
F5140.34983412394
sg1753
F3382.110545071592
sS'socanav'
p2678
F7981.097606918753
sS'chill'
p2679
F5322.059928594349
sS'mla'
p2680
F5322.059928594349
sg216
F20183.16974969871
sS'teachers'
p2681
F5322.059928594349
sS'landslide'
p2682
F5013.9615577188915
sS'styx'
p2683
F7981.097606918753
sg2332
F17906.12936987691
sg245
F5813.902043279847
sS'straits'
p2684
F7540.672656489502
sS'experts'
p2685
F3675.993690834817
sS'kuwaitis'
p2686
F3761.4369992567367
sS'disclosures'
p2687
F3159.917070340628
sS'waterway'
p2688
F19438.918468812135
sg790
F3246.831962482939
sS'ethylene'
p2689
F8885.161097438708
sg2340
F75172.12991970753
sS'waterside'
p2690
F5322.059928594349
sS'coastguard'
p2691
F5322.059928594349
sS'defiant'
p2692
F3445.4459425745663
sS'paulo'
p2693
F22231.165181750337
sg1980
F3502.170728248591
sS'bermuda'
p2694
F7517.072247382308
sS'powell'
p2695
F4647.845938990727
sS'ommeren'
p2696
F3761.4369992567367
sg1081
F14073.783654084758
sS'workforce'
p2697
F3065.5095600527516
sS'campinas'
p2698
F3445.4459425745663
sS'alert'
p2699
F3639.13927746138
sS'hulls'
p2700
F5322.059928594349
sg2118
F7617.8953611845955
sS'vowed'
p2701
F4390.230935471158
sS'tugs'
p2702
F5870.136830130258
sS'escorts'
p2703
F12608.58488743294
sS'settled'
p2704
F3107.7898705332723
sS'brabazon'
p2705
F5322.059928594349
sS'flags'
p2706
F3154.738665389907
sS'calcutta'
p2707
F7981.097606918753
sS'mclean'
p2708
F14957.29916819252
sS'listening'
p2709
F3445.4459425745663
sS'quoted'
p2710
F2792.9000382327495
sS'rubens'
p2711
F7981.097606918753
sS'ldt'
p2712
F3761.4369992567367
sS'rescue'
p2713
F3154.7254338129046
sg1701
F24077.575288314016
sS'monitored'
p2714
F5096.905309154714
sS'grounded'
p2715
F6887.4003274099505
sS'workers'
p2716
F24458.692799077293
sS'regent'
p2717
F6265.843032584425
sS'lake'
p2718
F4282.638751626265
sS'biffex'
p2719
F3320.790675923358
sg2364
F12515.620988930783
sS'struck'
p2720
F3550.189620238186
sS'unloading'
p2721
F5870.136830130258
sS'ross'
p2722
F3761.4321677403054
sS'hemsley'
p2723
F3761.4369992567367
sg44
F3341.729980959875
sg1742
F5013.9615577188915
sS'docks'
p2724
F3445.4459425745663
sS'welland'
p2725
F11731.405093202862
sS'traffic'
p2726
F5275.356797200974
sS'preference'
p2727
F4835.405781521333
sg1095
F6141.498481298285
sS'deployment'
p2728
F3761.4369992567367
sS'ruled'
p2729
F3334.348140723418
sg2372
F7517.081905360834
sg60
F7669.4561218045965
sS'cruzados'
p2730
F8282.696484058699
sS'mhi'
p2731
F11650.828918923364
sg1100
F4715.063671688819
sS'lightning'
p2732
F3502.17603368965
sg587
F2989.2187043694803
sg2378
F3526.1841343557926
sS'orley'
p2733
F7981.097606918753
sS'grouping'
p2734
F4604.462803438914
sS'tragedies'
p2735
F5322.059928594349
sS'dead'
p2736
F16257.717898212846
sg840
F3115.46259000783
sS'transport'
p2737
F19592.34166774046
sS'disrupting'
p2738
F5322.059928594349
sS'rhine'
p2739
F5816.542303297132
sS'leao'
p2740
F8387.512451012717
sS'ice'
p2741
F16986.31756952012
sS'rio'
p2742
F13426.610923822635
sS'icy'
p2743
F5870.136830130258
sg2391
F57747.62220582755
sS'lakes'
p2744
F9714.031294347811
sS'thoresen'
p2745
F10950.56782875041
sg1731
F6265.843032584425
sS'graaf'
p2746
F13295.193361155501
sS'redundancies'
p2747
F54479.397108779245
sS'handled'
p2748
F4420.921520506997
sg126
F15379.082020156056
sS'cranford'
p2749
F4604.465077487496
sg2397
F10366.163153283978
sS'island'
p2750
F2837.930875552899
sS'shipping'
p2751
F136427.32912349352
sS'carrier'
p2752
F15082.072603618104
sS'henrique'
p2753
F5870.136830130258
sS'baseless'
p2754
F6265.843032584425
sS'presence'
p2755
F2828.720341802798
sS'icebreaker'
p2756
F13539.158539961894
sS'shipbuilding'
p2757
F24144.00530916259
sg1771
F9465.00441297595
sS'pivot'
p2758
F5013.9615577188915
sS'pentagon'
p2759
F5414.431571881519
sS'canal'
p2760
F64723.44122484368
sS'mississippi'
p2761
F8556.849002667343
sS'stoppage'
p2762
F10602.817434990962
sS'refloat'
p2763
F8387.512451012717
sS'yao'
p2764
F3159.917070340628
sS'smit'
p2765
F5322.059928594349
sS'crews'
p2766
F5044.021524741431
sS'rosenmuller'
p2767
F13295.193361155501
sg1411
F4892.713233134003
sS'bagged'
p2768
F8767.673024275833
sS'hy'
p2769
F5322.059928594349
sg2413
F20249.92828550329
sS'shipbreaking'
p2770
F3761.4369992567367
sS'strikes'
p2771
F26336.846936570495
sS'saboya'
p2772
F5322.059928594349
sS'charterers'
p2773
F3761.434583515414
sS'deployed'
p2774
F5322.059928594349
sS'nearbys'
p2775
F5322.059928594349
sg218
F2748.5558036778784
sS'bosphorus'
p2776
F8387.512451012717
sg2421
F7517.081905360834
sS'propaganda'
p2777
F3761.434583515414
sS'cypriot'
p2778
F5013.9615577188915
sg241
F3370.187585518354
sS'vorm'
p2779
F3639.1480267070556
sg2425
F55112.165148924454
sS'erie'
p2780
F6265.8390077532
sg255
F5626.021824725638
sS'strikers'
p2781
F12009.430058890855
sS'istanbul'
p2782
F5825.587434873761
sS'fixing'
p2783
F2726.473326425193
sg2365
F14534.784385578922
sS'shex'
p2784
F6887.403225774595
sS'polar'
p2785
F7981.097606918753
sS'sismik'
p2786
F6265.843032584425
sS'star'
p2787
F4257.066023152958
sS'kaakebeen'
p2788
F7981.097606918753
sS'ferries'
p2789
F14229.780965137612
sS'stoppages'
p2790
F8021.47720270664
sS'died'
p2791
F3891.6941821741616
sg297
F11127.774217697692
sS'regency'
p2792
F3145.0358178777583
sS'crosbie'
p2793
F7981.097606918753
sS'unload'
p2794
F5870.136830130258
sS'rescued'
p2795
F6887.4003274099505
sS'huron'
p2796
F5322.059928594349
sS'hapag'
p2797
F5322.059928594349
sS'svz'
p2798
F7981.097606918753
sg1778
F10017.633768275873
sS'accidents'
p2799
F5322.059928594349
sS'onomichi'
p2800
F5322.059928594349
ss.